(imatplotlib.font_manager
FontManager
p1
(dp2
S'ttffiles'
p3
(lp4
S'C:\\Python24\\lib\\site-packages\\matplotlib\\mpl-data\\fonts\\ttf\\STIXNonUniBol.ttf'
p5
aS'C:\\Python24\\lib\\site-packages\\matplotlib\\mpl-data\\fonts\\ttf\\cmtt10.ttf'
p6
aS'C:\\Python24\\lib\\site-packages\\matplotlib\\mpl-data\\fonts\\ttf\\STIXGeneralItalic.ttf'
p7
aS'C:\\Python24\\lib\\site-packages\\matplotlib\\mpl-data\\fonts\\ttf\\VeraIt.ttf'
p8
aS'C:\\Python24\\lib\\site-packages\\matplotlib\\mpl-data\\fonts\\ttf\\Vera.ttf'
p9
aS'C:\\Python24\\lib\\site-packages\\matplotlib\\mpl-data\\fonts\\ttf\\STIXGeneral.ttf'
p10
aS'C:\\Python24\\lib\\site-packages\\matplotlib\\mpl-data\\fonts\\ttf\\STIXSiz1Sym.ttf'
p11
aS'C:\\Python24\\lib\\site-packages\\matplotlib\\mpl-data\\fonts\\ttf\\VeraMoBd.ttf'
p12
aS'C:\\Python24\\lib\\site-packages\\matplotlib\\mpl-data\\fonts\\ttf\\cmmi10.ttf'
p13
aS'C:\\Python24\\lib\\site-packages\\matplotlib\\mpl-data\\fonts\\ttf\\VeraSeBd.ttf'
p14
aS'C:\\Python24\\lib\\site-packages\\matplotlib\\mpl-data\\fonts\\ttf\\VeraBI.ttf'
p15
aS'C:\\Python24\\lib\\site-packages\\matplotlib\\mpl-data\\fonts\\ttf\\cmex10.ttf'
p16
aS'C:\\Python24\\lib\\site-packages\\matplotlib\\mpl-data\\fonts\\ttf\\VeraSe.ttf'
p17
aS'C:\\Python24\\lib\\site-packages\\matplotlib\\mpl-data\\fonts\\ttf\\STIXSiz1SymBol.ttf'
p18
aS'C:\\Python24\\lib\\site-packages\\matplotlib\\mpl-data\\fonts\\ttf\\cmb10.ttf'
p19
aS'C:\\Python24\\lib\\site-packages\\matplotlib\\mpl-data\\fonts\\ttf\\VeraMoBI.ttf'
p20
aS'C:\\Python24\\lib\\site-packages\\matplotlib\\mpl-data\\fonts\\ttf\\STIXNonUni.ttf'
p21
aS'C:\\Python24\\lib\\site-packages\\matplotlib\\mpl-data\\fonts\\ttf\\STIXSiz2SymBol.ttf'
p22
aS'C:\\Python24\\lib\\site-packages\\matplotlib\\mpl-data\\fonts\\ttf\\STIXSiz3Sym.ttf'
p23
aS'C:\\Python24\\lib\\site-packages\\matplotlib\\mpl-data\\fonts\\ttf\\STIXGeneralBolIta.ttf'
p24
aS'C:\\Python24\\lib\\site-packages\\matplotlib\\mpl-data\\fonts\\ttf\\cmr10.ttf'
p25
aS'C:\\Python24\\lib\\site-packages\\matplotlib\\mpl-data\\fonts\\ttf\\STIXNonUniBolIta.ttf'
p26
aS'C:\\Python24\\lib\\site-packages\\matplotlib\\mpl-data\\fonts\\ttf\\STIXSiz4Sym.ttf'
p27
aS'C:\\Python24\\lib\\site-packages\\matplotlib\\mpl-data\\fonts\\ttf\\cmsy10.ttf'
p28
aS'C:\\Python24\\lib\\site-packages\\matplotlib\\mpl-data\\fonts\\ttf\\STIXSiz5Sym.ttf'
p29
aS'C:\\Python24\\lib\\site-packages\\matplotlib\\mpl-data\\fonts\\ttf\\VeraMoIt.ttf'
p30
aS'C:\\Python24\\lib\\site-packages\\matplotlib\\mpl-data\\fonts\\ttf\\STIXSiz2Sym.ttf'
p31
aS'C:\\Python24\\lib\\site-packages\\matplotlib\\mpl-data\\fonts\\ttf\\VeraBd.ttf'
p32
aS'C:\\Python24\\lib\\site-packages\\matplotlib\\mpl-data\\fonts\\ttf\\cmss10.ttf'
p33
aS'C:\\Python24\\lib\\site-packages\\matplotlib\\mpl-data\\fonts\\ttf\\VeraMono.ttf'
p34
aS'C:\\Python24\\lib\\site-packages\\matplotlib\\mpl-data\\fonts\\ttf\\STIXNonUniIta.ttf'
p35
aS'C:\\Python24\\lib\\site-packages\\matplotlib\\mpl-data\\fonts\\ttf\\STIXSiz3SymBol.ttf'
p36
aS'C:\\Python24\\lib\\site-packages\\matplotlib\\mpl-data\\fonts\\ttf\\STIXGeneralBol.ttf'
p37
aS'C:\\Python24\\lib\\site-packages\\matplotlib\\mpl-data\\fonts\\ttf\\STIXSiz4SymBol.ttf'
p38
aVC:\u005CWINDOWS\u005CFonts\u005CHTOWERTI.TTF
p39
aVc:\u005Cwindows\u005Cfonts\u005Cftltlt.ttf
p40
aVC:\u005CWINDOWS\u005CFonts\u005CANTQUAI.TTF
p41
aVc:\u005Cwindows\u005Cfonts\u005Ctrebucbd.ttf
p42
aVC:\u005CWINDOWS\u005CFonts\u005CPERTILI.TTF
p43
aVc:\u005Cwindows\u005Cfonts\u005Cbelli.ttf
p44
aVc:\u005Cwindows\u005Cfonts\u005Cbod_blai.ttf
p45
aVC:\u005CWINDOWS\u005CFonts\u005CROCKEB.TTF
p46
aVC:\u005CWINDOWS\u005CFonts\u005Cnasaliza.ttf
p47
aVc:\u005Cwindows\u005Cfonts\u005Cgazzarelli.ttf
p48
aVC:\u005CWINDOWS\u005CFonts\u005CLATHA.TTF
p49
aVC:\u005CWINDOWS\u005CFonts\u005CGOTHIC.TTF
p50
aVC:\u005CWINDOWS\u005CFonts\u005CTREBUC.TTF
p51
aVc:\u005Cwindows\u005Cfonts\u005Csnowdrft.ttf
p52
aVC:\u005CWINDOWS\u005CFonts\u005CROCCB___.TTF
p53
aVc:\u005Cwindows\u005Cfonts\u005Cfradm.ttf
p54
aVC:\u005CWINDOWS\u005CFonts\u005CWINGDING.TTF
p55
aVc:\u005Cwindows\u005Cfonts\u005Ctrebucbi.ttf
p56
aVc:\u005Cwindows\u005Cfonts\u005Cmtcorsva.ttf
p57
aVc:\u005Cwindows\u005Cfonts\u005Cbod_cr.ttf
p58
aVc:\u005Cwindows\u005Cfonts\u005Cbod_bi.ttf
p59
aVc:\u005Cwindows\u005Cfonts\u005Cgili____.ttf
p60
aVc:\u005Cwindows\u005Cfonts\u005Cimprisha.ttf
p61
aVc:\u005Cwindows\u005Cfonts\u005Cariali.ttf
p62
aVc:\u005Cwindows\u005Cfonts\u005Ctcm_____.ttf
p63
aVC:\u005CWINDOWS\u005CFonts\u005CFRADMIT.TTF
p64
aVc:\u005Cwindows\u005Cfonts\u005Cmagnetob.ttf
p65
aVc:\u005Cwindows\u005Cfonts\u005Ctccb____.ttf
p66
aVC:\u005CWINDOWS\u005CFonts\u005CGEORGIA.TTF
p67
aVC:\u005CWINDOWS\u005CFonts\u005CPER_____.TTF
p68
aVC:\u005CWINDOWS\u005CFonts\u005CLHANDW.TTF
p69
aVC:\u005CWINDOWS\u005CFonts\u005CGIL_____.TTF
p70
aVC:\u005CWINDOWS\u005CFonts\u005CDAYTON__.TTF
p71
aVC:\u005CWINDOWS\u005CFonts\u005CPLAYBILL.TTF
p72
aVc:\u005Cwindows\u005Cfonts\u005Ctahomabd.ttf
p73
aVc:\u005Cwindows\u005Cfonts\u005Chandmeds.ttf
p74
aVc:\u005Cwindows\u005Cfonts\u005Ccalifi.ttf
p75
aVc:\u005Cwindows\u005Cfonts\u005Ckunstler.ttf
p76
aVC:\u005CWINDOWS\u005CFonts\u005CGEORGIAZ.TTF
p77
aVC:\u005CWINDOWS\u005CFonts\u005CCURLZ___.TTF
p78
aVc:\u005Cwindows\u005Cfonts\u005Cgilbi___.ttf
p79
aVC:\u005CWINDOWS\u005CFonts\u005CPERBI___.TTF
p80
aVC:\u005CWINDOWS\u005CFonts\u005CPARCHM.TTF
p81
aVc:\u005Cwindows\u005Cfonts\u005Cchinyen.ttf
p82
aVc:\u005Cwindows\u005Cfonts\u005Carialbd.ttf
p83
aVC:\u005CWINDOWS\u005CFonts\u005CBRLNSR.TTF
p84
aVC:\u005CWINDOWS\u005CFonts\u005CTIMESI.TTF
p85
aVC:\u005CWINDOWS\u005CFonts\u005CBOD_CR.TTF
p86
aVc:\u005Cwindows\u005Cfonts\u005Cverdanaz.ttf
p87
aVc:\u005Cwindows\u005Cfonts\u005Clfaxd.ttf
p88
aVC:\u005CWINDOWS\u005CFonts\u005CCALLI___.TTF
p89
aVC:\u005CWINDOWS\u005CFonts\u005CBOOKOSB.TTF
p90
aVc:\u005Cwindows\u005Cfonts\u005Cmaian.ttf
p91
aVc:\u005Cwindows\u005Cfonts\u005Cfrabkit.ttf
p92
aVC:\u005CWINDOWS\u005CFonts\u005CESTRE.TTF
p93
aVc:\u005Cwindows\u005Cfonts\u005Cbnjinx.ttf
p94
aVC:\u005CWINDOWS\u005CFonts\u005CANTQUAB.TTF
p95
aVc:\u005Cwindows\u005Cfonts\u005Cnovem___.ttf
p96
aVc:\u005Cwindows\u005Cfonts\u005Cgoodtime.ttf
p97
aVc:\u005Cwindows\u005Cfonts\u005Cantquabi.ttf
p98
aVC:\u005CWINDOWS\u005CFonts\u005CBERING__.TTF
p99
aVc:\u005Cwindows\u005Cfonts\u005Ccalifb.ttf
p100
aVC:\u005CWINDOWS\u005CFonts\u005CCASTELAR.TTF
p101
aVC:\u005CWINDOWS\u005CFonts\u005CKLINGBO_.TTF
p102
aVC:\u005CWINDOWS\u005CFonts\u005CCHILLER.TTF
p103
aVC:\u005CWINDOWS\u005CFonts\u005Cparryhotter.ttf
p104
aVc:\u005Cwindows\u005Cfonts\u005Ccour.ttf
p105
aVC:\u005CWINDOWS\u005CFonts\u005Clittlelo.ttf
p106
aVC:\u005CWINDOWS\u005CFonts\u005CANDORRA_.TTF
p107
aVC:\u005CWINDOWS\u005CFonts\u005CCORPO___.TTF
p108
aVc:\u005Cwindows\u005Cfonts\u005Cagencyb.ttf
p109
aVc:\u005Cwindows\u005Cfonts\u005Ccoopbl.ttf
p110
aVC:\u005CWINDOWS\u005CFonts\u005CADDLED__.TTF
p111
aVc:\u005Cwindows\u005Cfonts\u005Cltypebo.ttf
p112
aVC:\u005CWINDOWS\u005CFonts\u005CPERTIBD.TTF
p113
aVC:\u005CWINDOWS\u005CFonts\u005CTCB_____.TTF
p114
aVC:\u005CWINDOWS\u005CFonts\u005CTCCEB.TTF
p115
aVC:\u005CWINDOWS\u005CFonts\u005CARIALNBI.TTF
p116
aVc:\u005Cwindows\u005Cfonts\u005Cmod20.ttf
p117
aVc:\u005Cwindows\u005Cfonts\u005Cschlbkbi.ttf
p118
aVC:\u005CWINDOWS\u005CFonts\u005CARIALBI.TTF
p119
aVc:\u005Cwindows\u005Cfonts\u005Cterminat.ttf
p120
aVc:\u005Cwindows\u005Cfonts\u005Cocraext.ttf
p121
aVC:\u005CWINDOWS\u005CFonts\u005Cwoodcut.ttf
p122
aVC:\u005CWINDOWS\u005CFonts\u005CSYMBOL.TTF
p123
aVc:\u005Cwindows\u005Cfonts\u005Clsansi.ttf
p124
aVC:\u005CWINDOWS\u005CFonts\u005CBOD_BI.TTF
p125
aVc:\u005Cwindows\u005Cfonts\u005Cerasmd.ttf
p126
aVc:\u005Cwindows\u005Cfonts\u005Cverdanai.ttf
p127
aVC:\u005CWINDOWS\u005CFonts\u005Ccandles_.ttf
p128
aVc:\u005Cwindows\u005Cfonts\u005Cfradmit.ttf
p129
aVC:\u005CWINDOWS\u005CFonts\u005CTREBUCIT.TTF
p130
aVC:\u005CWINDOWS\u005CFonts\u005Cchinyen.ttf
p131
aVC:\u005CWINDOWS\u005CFonts\u005CBOD_CBI.TTF
p132
aVc:\u005Cwindows\u005Cfonts\u005Cgeorgiaz.ttf
p133
aVC:\u005CWINDOWS\u005CFonts\u005CMTCORSVA.TTF
p134
aVC:\u005CWINDOWS\u005CFonts\u005Cdistant galaxy 2.ttf
p135
aVC:\u005CWINDOWS\u005CFonts\u005CLSANSI.TTF
p136
aVc:\u005Cwindows\u005Cfonts\u005Csylfaen.ttf
p137
aVc:\u005Cwindows\u005Cfonts\u005Croccb___.ttf
p138
aVC:\u005CWINDOWS\u005CFonts\u005CAGENCYB.TTF
p139
aVC:\u005CWINDOWS\u005CFonts\u005CGILBI___.TTF
p140
aVC:\u005CWINDOWS\u005CFonts\u005CGAUTAMI.TTF
p141
aVC:\u005CWINDOWS\u005CFonts\u005CLFAXI.TTF
p142
aVC:\u005CWINDOWS\u005CFonts\u005CQUIVEIT_.TTF
p143
aVc:\u005Cwindows\u005Cfonts\u005Cschlbki.ttf
p144
aVC:\u005CWINDOWS\u005CFonts\u005CFRAMD.TTF
p145
aVC:\u005CWINDOWS\u005CFonts\u005CSNAP____.TTF
p146
aVC:\u005CWINDOWS\u005CFonts\u005CABBESS__.TTF
p147
aVc:\u005Cwindows\u005Cfonts\u005Conyx.ttf
p148
aVc:\u005Cwindows\u005Cfonts\u005Cnarrow.ttf
p149
aVC:\u005CWINDOWS\u005CFonts\u005Cnarrow.ttf
p150
aVC:\u005CWINDOWS\u005CFonts\u005CVeraMono.ttf
p151
aVc:\u005Cwindows\u005Cfonts\u005Cglecb.ttf
p152
aVC:\u005CWINDOWS\u005CFonts\u005CGILI____.TTF
p153
aVC:\u005CWINDOWS\u005CFonts\u005CREFSPCL.TTF
p154
aVc:\u005Cwindows\u005Cfonts\u005Cbookosi.ttf
p155
aVC:\u005CWINDOWS\u005CFonts\u005CFRADM.TTF
p156
aVc:\u005Cwindows\u005Cfonts\u005Clsansd.ttf
p157
aVC:\u005CWINDOWS\u005CFonts\u005CWINGDNG2.TTF
p158
aVC:\u005CWINDOWS\u005CFonts\u005CFORTE.TTF
p159
aVc:\u005Cwindows\u005Cfonts\u005Cemmett__.ttf
p160
aVC:\u005CWINDOWS\u005CFonts\u005Cxfiles.ttf
p161
aVC:\u005CWINDOWS\u005CFonts\u005CFRAHVIT.TTF
p162
aVc:\u005Cwindows\u005Cfonts\u005Ccentaur.ttf
p163
aVC:\u005CWINDOWS\u005CFonts\u005CERASBD.TTF
p164
aVC:\u005CWINDOWS\u005CFonts\u005CFRSCRIPT.TTF
p165
aVc:\u005Cwindows\u005Cfonts\u005Clatha.ttf
p166
aVc:\u005Cwindows\u005Cfonts\u005Clucon.ttf
p167
aVC:\u005CWINDOWS\u005CFonts\u005Csnowdrft.ttf
p168
aVc:\u005Cwindows\u005Cfonts\u005Carlrdbd.ttf
p169
aVc:\u005Cwindows\u005Cfonts\u005Cbernhc.ttf
p170
aVC:\u005CWINDOWS\u005CFonts\u005CWINGDNG3.TTF
p171
aVC:\u005CWINDOWS\u005CFonts\u005CAGENCYR.TTF
p172
aVc:\u005Cwindows\u005Cfonts\u005Ccastelar.ttf
p173
aVC:\u005CWINDOWS\u005CFonts\u005CGOTHICB.TTF
p174
aVC:\u005CWINDOWS\u005CFonts\u005CRAGE.TTF
p175
aVC:\u005CWINDOWS\u005CFonts\u005Csf movie poster2.ttf
p176
aVc:\u005Cwindows\u005Cfonts\u005Carialuni.ttf
p177
aVC:\u005CWINDOWS\u005CFonts\u005Cterminat.ttf
p178
aVc:\u005Cwindows\u005Cfonts\u005Cgillubcd.ttf
p179
aVc:\u005Cwindows\u005Cfonts\u005Cmistral.ttf
p180
aVC:\u005CWINDOWS\u005CFonts\u005CGIGI.TTF
p181
aVC:\u005CWINDOWS\u005CFonts\u005Chollh___.ttf
p182
aVC:\u005CWINDOWS\u005CFonts\u005CCOLONNA.TTF
p183
aVc:\u005Cwindows\u005Cfonts\u005Cperi____.ttf
p184
aVC:\u005CWINDOWS\u005CFonts\u005CROCK.TTF
p185
aVc:\u005Cwindows\u005Cfonts\u005Ccoprgtl.ttf
p186
aVc:\u005Cwindows\u005Cfonts\u005Ctcmi____.ttf
p187
aVC:\u005CWINDOWS\u005CFonts\u005CARIAL.TTF
p188
aVC:\u005CWINDOWS\u005CFonts\u005Calmosnow.ttf
p189
aVc:\u005Cwindows\u005Cfonts\u005Cmicross.ttf
p190
aVc:\u005Cwindows\u005Cfonts\u005Ctimes.ttf
p191
aVc:\u005Cwindows\u005Cfonts\u005Cwingdng2.ttf
p192
aVc:\u005Cwindows\u005Cfonts\u005Ccouri.ttf
p193
aVc:\u005Cwindows\u005Cfonts\u005Cpenliit_.ttf
p194
aVC:\u005CWINDOWS\u005CFonts\u005CBRLNSDB.TTF
p195
aVC:\u005CWINDOWS\u005CFonts\u005CBRADHITC.TTF
p196
aVC:\u005CWINDOWS\u005CFonts\u005CHATTEN.TTF
p197
aVc:\u005Cwindows\u005Cfonts\u005Carial.ttf
p198
aVc:\u005Cwindows\u005Cfonts\u005Cbod_i.ttf
p199
aVC:\u005CWINDOWS\u005CFonts\u005CBOD_PSTC.TTF
p200
aVc:\u005Cwindows\u005Cfonts\u005Cengr.ttf
p201
aVc:\u005Cwindows\u005Cfonts\u005Cl_10646.ttf
p202
aVC:\u005CWINDOWS\u005CFonts\u005CLFAX.TTF
p203
aVC:\u005CWINDOWS\u005CFonts\u005CTREBUCBI.TTF
p204
aVc:\u005Cwindows\u005Cfonts\u005Cneon2.ttf
p205
aVC:\u005CWINDOWS\u005CFonts\u005CGeotype.ttf
p206
aVC:\u005CWINDOWS\u005CFonts\u005CCOMMONS_.TTF
p207
aVc:\u005Cwindows\u005Cfonts\u005Crefsan.ttf
p208
aVc:\u005Cwindows\u005Cfonts\u005Cbookosb.ttf
p209
aVC:\u005CWINDOWS\u005CFonts\u005CCALISTBI.TTF
p210
aVc:\u005Cwindows\u005Cfonts\u005Cfelixti.ttf
p211
aVc:\u005Cwindows\u005Cfonts\u005Cpalai.ttf
p212
aVc:\u005Cwindows\u005Cfonts\u005Cfrahvit.ttf
p213
aVC:\u005CWINDOWS\u005CFonts\u005CPAPYRUS.TTF
p214
aVC:\u005CWINDOWS\u005CFonts\u005CFRAMDCN.TTF
p215
aVc:\u005Cwindows\u005Cfonts\u005Cbod_b.ttf
p216
aVC:\u005CWINDOWS\u005CFonts\u005CROCC____.TTF
p217
aVC:\u005CWINDOWS\u005CFonts\u005CROCKB.TTF
p218
aVc:\u005Cwindows\u005Cfonts\u005Cschlbkb.ttf
p219
aVC:\u005CWINDOWS\u005CFonts\u005Cinductio.ttf
p220
aVC:\u005CWINDOWS\u005CFonts\u005CARIALNB.TTF
p221
aVc:\u005Cwindows\u005Cfonts\u005Cchiller.ttf
p222
aVc:\u005Cwindows\u005Cfonts\u005Cpenulli_.ttf
p223
aVC:\u005CWINDOWS\u005CFonts\u005CKUNSTLER.TTF
p224
aVc:\u005Cwindows\u005Cfonts\u005Cmangal.ttf
p225
aVc:\u005Cwindows\u005Cfonts\u005Ctrebuc.ttf
p226
aVc:\u005Cwindows\u005Cfonts\u005Cgil_____.ttf
p227
aVC:\u005CWINDOWS\u005CFonts\u005CPALAI.TTF
p228
aVc:\u005Cwindows\u005Cfonts\u005Crockb.ttf
p229
aVc:\u005Cwindows\u005Cfonts\u005Caliee13.ttf
p230
aVC:\u005CWINDOWS\u005CFonts\u005CSHRUTI.TTF
p231
aVC:\u005CWINDOWS\u005CFonts\u005CGOTHICBI.TTF
p232
aVC:\u005CWINDOWS\u005CFonts\u005CBKANT.TTF
p233
aVc:\u005Cwindows\u005Cfonts\u005Ccalifr.ttf
p234
aVC:\u005CWINDOWS\u005CFonts\u005CTIMES.TTF
p235
aVc:\u005Cwindows\u005Cfonts\u005Ccenscbk.ttf
p236
aVc:\u005Cwindows\u005Cfonts\u005Chollh___.ttf
p237
aVC:\u005CWINDOWS\u005CFonts\u005CERASDEMI.TTF
p238
aVC:\u005CWINDOWS\u005CFonts\u005CBOD_R.TTF
p239
aVC:\u005CWINDOWS\u005CFonts\u005CTIMESBD.TTF
p240
aVc:\u005Cwindows\u005Cfonts\u005Ctcbi____.ttf
p241
aVc:\u005Cwindows\u005Cfonts\u005Cverdanab.ttf
p242
aVc:\u005Cwindows\u005Cfonts\u005Ccourbi.ttf
p243
aVC:\u005CWINDOWS\u005CFonts\u005CVIVIAN__.TTF
p244
aVc:\u005Cwindows\u005Cfonts\u005Cwingdng3.ttf
p245
aVC:\u005CWINDOWS\u005CFonts\u005CGLSNECB.TTF
p246
aVC:\u005CWINDOWS\u005CFonts\u005CTAHOMABD.TTF
p247
aVc:\u005Cwindows\u005Cfonts\u005Ccalistb.ttf
p248
aVC:\u005CWINDOWS\u005CFonts\u005CBRUSHSCI.TTF
p249
aVC:\u005CWINDOWS\u005CFonts\u005CPALAB.TTF
p250
aVc:\u005Cwindows\u005Cfonts\u005Ccalisti.ttf
p251
aVC:\u005CWINDOWS\u005CFonts\u005CCOUR.TTF
p252
aVc:\u005Cwindows\u005Cfonts\u005Cvineritc.ttf
p253
aVc:\u005Cwindows\u005Cfonts\u005Cjokerman.ttf
p254
aVC:\u005CWINDOWS\u005CFonts\u005Cltromatic.ttf
p255
aVC:\u005CWINDOWS\u005CFonts\u005CLBRITED.TTF
p256
aVc:\u005Cwindows\u005Cfonts\u005Csf movie poster2.ttf
p257
aVc:\u005Cwindows\u005Cfonts\u005Citcblkad.ttf
p258
aVc:\u005Cwindows\u005Cfonts\u005Cbaskvill.ttf
p259
aVc:\u005Cwindows\u005Cfonts\u005Cquiveit_.ttf
p260
aVc:\u005Cwindows\u005Cfonts\u005Crocki.ttf
p261
aVC:\u005CWINDOWS\u005CFonts\u005Cyearsupplyoffairycakes.ttf
p262
aVC:\u005CWINDOWS\u005CFonts\u005CCALISTI.TTF
p263
aVc:\u005Cwindows\u005Cfonts\u005Cbkant.ttf
p264
aVc:\u005Cwindows\u005Cfonts\u005Cgarabd.ttf
p265
aVC:\u005CWINDOWS\u005CFonts\u005CJUICE___.TTF
p266
aVC:\u005CWINDOWS\u005CFonts\u005CROCKI.TTF
p267
aVC:\u005CWINDOWS\u005CFonts\u005CLBRITEI.TTF
p268
aVC:\u005CWINDOWS\u005CFonts\u005CERASLGHT.TTF
p269
aVc:\u005Cwindows\u005Cfonts\u005Ccalist.ttf
p270
aVc:\u005Cwindows\u005Cfonts\u005Ccurlz___.ttf
p271
aVc:\u005Cwindows\u005Cfonts\u005Carialbi.ttf
p272
aVc:\u005Cwindows\u005Cfonts\u005Ctrebucit.ttf
p273
aVc:\u005Cwindows\u005Cfonts\u005Cbritanic.ttf
p274
aVC:\u005CWINDOWS\u005CFonts\u005CITCBLKAD.TTF
p275
aVc:\u005Cwindows\u005Cfonts\u005Ccourbd.ttf
p276
aVc:\u005Cwindows\u005Cfonts\u005Cpertili.ttf
p277
aVC:\u005CWINDOWS\u005CFonts\u005Caliee13.ttf
p278
aVc:\u005Cwindows\u005Cfonts\u005Ctimesbi.ttf
p279
aVC:\u005CWINDOWS\u005CFonts\u005CCOURI.TTF
p280
aVC:\u005CWINDOWS\u005CFonts\u005CARIALI.TTF
p281
aVc:\u005Cwindows\u005Cfonts\u005Cbauhs93.ttf
p282
aVC:\u005CWINDOWS\u005CFonts\u005CGEORGIAB.TTF
p283
aVc:\u005Cwindows\u005Cfonts\u005Clcallig.ttf
p284
aVC:\u005CWINDOWS\u005CFonts\u005CTCCM____.TTF
p285
aVC:\u005CWINDOWS\u005CFonts\u005CSCHLBKB.TTF
p286
aVC:\u005CWINDOWS\u005CFonts\u005CGILC____.TTF
p287
aVc:\u005Cwindows\u005Cfonts\u005Ccolonna.ttf
p288
aVC:\u005CWINDOWS\u005CFonts\u005CVERDANAI.TTF
p289
aVC:\u005CWINDOWS\u005CFonts\u005CCRAND___.TTF
p290
aVc:\u005Cwindows\u005Cfonts\u005Cautumn__.ttf
p291
aVC:\u005CWINDOWS\u005CFonts\u005CPENLIIT_.TTF
p292
aVC:\u005CWINDOWS\u005CFonts\u005CCENTURY.TTF
p293
aVc:\u005Cwindows\u005Cfonts\u005Ccomicbd.ttf
p294
aVc:\u005Cwindows\u005Cfonts\u005Clittlelo.ttf
p295
aVC:\u005CWINDOWS\u005CFonts\u005CPOORICH.TTF
p296
aVc:\u005Cwindows\u005Cfonts\u005Ctempsitc.ttf
p297
aVc:\u005Cwindows\u005Cfonts\u005Cltypeo.ttf
p298
aVC:\u005CWINDOWS\u005CFonts\u005CBELLI.TTF
p299
aVc:\u005Cwindows\u005Cfonts\u005Ccreerg__.ttf
p300
aVC:\u005CWINDOWS\u005CFonts\u005CCOMICBD.TTF
p301
aVc:\u005Cwindows\u005Cfonts\u005Cheavyhea2.ttf
p302
aVc:\u005Cwindows\u005Cfonts\u005Cgoudysto.ttf
p303
aVC:\u005CWINDOWS\u005CFonts\u005CBRITANIC.TTF
p304
aVC:\u005CWINDOWS\u005CFonts\u005CMVBOLI.TTF
p305
aVc:\u005Cwindows\u005Cfonts\u005Cantquab.ttf
p306
aVC:\u005CWINDOWS\u005CFonts\u005Casimov.ttf
p307
aVC:\u005CWINDOWS\u005CFonts\u005CPALA.TTF
p308
aVC:\u005CWINDOWS\u005CFonts\u005CFREESCPT.TTF
p309
aVc:\u005Cwindows\u005Cfonts\u005Cglsnecb.ttf
p310
aVC:\u005CWINDOWS\u005CFonts\u005CLTYPE.TTF
p311
aVc:\u005Cwindows\u005Cfonts\u005Cfrabk.ttf
p312
aVC:\u005CWINDOWS\u005CFonts\u005Cheavyhea2.ttf
p313
aVC:\u005CWINDOWS\u005CFonts\u005CLTYPEO.TTF
p314
aVc:\u005Cwindows\u005Cfonts\u005Cnasaliza.ttf
p315
aVC:\u005CWINDOWS\u005CFonts\u005CFRAHV.TTF
p316
aVc:\u005Cwindows\u005Cfonts\u005Cgoudosb.ttf
p317
aVC:\u005CWINDOWS\u005CFonts\u005CGLECB.TTF
p318
aVc:\u005Cwindows\u005Cfonts\u005Ceraslght.ttf
p319
aVC:\u005CWINDOWS\u005CFonts\u005CANTQUABI.TTF
p320
aVc:\u005Cwindows\u005Cfonts\u005Cbabyk___.ttf
p321
aVC:\u005CWINDOWS\u005CFonts\u005CMARLETT.TTF
p322
aVC:\u005CWINDOWS\u005CFonts\u005CL_10646.TTF
p323
aVC:\u005CWINDOWS\u005CFonts\u005Cbabyk___.ttf
p324
aVc:\u005Cwindows\u005Cfonts\u005Cpertibd.ttf
p325
aVC:\u005CWINDOWS\u005CFonts\u005Cbnmachine.ttf
p326
aVc:\u005Cwindows\u005Cfonts\u005Cgautami.ttf
p327
aVC:\u005CWINDOWS\u005CFonts\u005CNOVEM___.TTF
p328
aVc:\u005Cwindows\u005Cfonts\u005Celephnti.ttf
p329
aVc:\u005Cwindows\u005Cfonts\u005Cgothicbi.ttf
p330
aVc:\u005Cwindows\u005Cfonts\u005Charngton.ttf
p331
aVc:\u005Cwindows\u005Cfonts\u005Cbobcat.ttf
p332
aVC:\u005CWINDOWS\u005CFonts\u005CCALIFR.TTF
p333
aVc:\u005Cwindows\u005Cfonts\u005Calmosnow.ttf
p334
aVC:\u005CWINDOWS\u005CFonts\u005CBOD_I.TTF
p335
aVC:\u005CWINDOWS\u005CFonts\u005CCOOPBL.TTF
p336
aVC:\u005CWINDOWS\u005CFonts\u005CFELIXTI.TTF
p337
aVC:\u005CWINDOWS\u005CFonts\u005CPALABI.TTF
p338
aVC:\u005CWINDOWS\u005CFonts\u005CGILB____.TTF
p339
aVc:\u005Cwindows\u005Cfonts\u005Cgarait.ttf
p340
aVc:\u005Cwindows\u005Cfonts\u005Cwoodcut.ttf
p341
aVC:\u005CWINDOWS\u005CFonts\u005CCALISTB.TTF
p342
aVC:\u005CWINDOWS\u005CFonts\u005CSCHLBKI.TTF
p343
aVc:\u005Cwindows\u005Cfonts\u005Cgilb____.ttf
p344
aVC:\u005CWINDOWS\u005CFonts\u005CFRAMDIT.TTF
p345
aVc:\u005Cwindows\u005Cfonts\u005Ccentury.ttf
p346
aVc:\u005Cwindows\u005Cfonts\u005Carialnb.ttf
p347
aVC:\u005CWINDOWS\u005CFonts\u005CBOLSTBO_.TTF
p348
aVc:\u005Cwindows\u005Cfonts\u005Coutlook.ttf
p349
aVC:\u005CWINDOWS\u005CFonts\u005CBSSYM7.TTF
p350
aVc:\u005Cwindows\u005Cfonts\u005Clfaxdi.ttf
p351
aVC:\u005CWINDOWS\u005CFonts\u005CLUCON.TTF
p352
aVC:\u005CWINDOWS\u005CFonts\u005CHARVEIT_.TTF
p353
aVc:\u005Cwindows\u005Cfonts\u005Carialn.ttf
p354
aVC:\u005CWINDOWS\u005CFonts\u005CARLRDBD.TTF
p355
aVC:\u005CWINDOWS\u005CFonts\u005CMINGLE__.TTF
p356
aVC:\u005CWINDOWS\u005CFonts\u005CVIVALDII.TTF
p357
aVc:\u005Cwindows\u005Cfonts\u005Clfax.ttf
p358
aVc:\u005Cwindows\u005Cfonts\u005Cbnmachine.ttf
p359
aVC:\u005CWINDOWS\u005CFonts\u005CPALSCRI.TTF
p360
aVC:\u005CWINDOWS\u005CFonts\u005CTAHOMA.TTF
p361
aVC:\u005CWINDOWS\u005CFonts\u005Ccreerg__.ttf
p362
aVc:\u005Cwindows\u005Cfonts\u005Cameth___.ttf
p363
aVC:\u005CWINDOWS\u005CFonts\u005CSCRIPTBL.TTF
p364
aVc:\u005Cwindows\u005Cfonts\u005Chatten.ttf
p365
aVC:\u005CWINDOWS\u005CFonts\u005CMAGNETOB.TTF
p366
aVC:\u005CWINDOWS\u005CFonts\u005CCALVIN__.TTF
p367
aVc:\u005Cwindows\u005Cfonts\u005Cbrlnsr.ttf
p368
aVC:\u005CWINDOWS\u005CFonts\u005CGOUDOSB.TTF
p369
aVc:\u005Cwindows\u005Cfonts\u005Cwingding.ttf
p370
aVC:\u005CWINDOWS\u005CFonts\u005CAUTUMN__.TTF
p371
aVc:\u005Cwindows\u005Cfonts\u005Cbell.ttf
p372
aVc:\u005Cprogram files\u005Ccommon files\u005Cmicrosoft shared\u005Cequation\u005Cmtextra.ttf
p373
aVC:\u005CWINDOWS\u005CFonts\u005CJOKERMAN.TTF
p374
aVC:\u005CWINDOWS\u005CFonts\u005CTCM_____.TTF
p375
aVC:\u005CWINDOWS\u005CFonts\u005CITCKRIST.TTF
p376
aVc:\u005Cwindows\u005Cfonts\u005Cjuice___.ttf
p377
aVc:\u005Cwindows\u005Cfonts\u005Clsans.ttf
p378
aVC:\u005CWINDOWS\u005CFonts\u005CPERB____.TTF
p379
aVc:\u005Cwindows\u005Cfonts\u005Cframdcn.ttf
p380
aVC:\u005CWINDOWS\u005CFonts\u005CTCBI____.TTF
p381
aVC:\u005CWINDOWS\u005CFonts\u005Cdigifit.ttf
p382
aVc:\u005Cwindows\u005Cfonts\u005Cvivian__.ttf
p383
aVc:\u005Cwindows\u005Cfonts\u005Cpalab.ttf
p384
aVc:\u005Cwindows\u005Cfonts\u005Cbrushsci.ttf
p385
aVc:\u005Cwindows\u005Cfonts\u005Cfreescpt.ttf
p386
aVc:\u005Cwindows\u005Cfonts\u005Ccracj___.ttf
p387
aVc:\u005Cwindows\u005Cfonts\u005Cgilsanub.ttf
p388
aVc:\u005Cwindows\u005Cfonts\u005Cgigi.ttf
p389
aVC:\u005CWINDOWS\u005CFonts\u005CLCALLIG.TTF
p390
aVC:\u005CWINDOWS\u005CFonts\u005CBOD_B.TTF
p391
aVC:\u005CWINDOWS\u005CFonts\u005CBASKVILL.TTF
p392
aVc:\u005Cwindows\u005Cfonts\u005Clatinwd.ttf
p393
aVc:\u005Cwindows\u005Cfonts\u005Chtowert.ttf
p394
aVc:\u005Cwindows\u005Cfonts\u005Cpapyrus.ttf
p395
aVc:\u005Cwindows\u005Cfonts\u005Clbritedi.ttf
p396
aVC:\u005CWINDOWS\u005CFonts\u005CARIALNI.TTF
p397
aVC:\u005CWINDOWS\u005CFonts\u005CBOD_CI.TTF
p398
aVC:\u005CWINDOWS\u005CFonts\u005CMANGAL.TTF
p399
aVc:\u005Cwindows\u005Cfonts\u005Celephnt.ttf
p400
aVC:\u005CWINDOWS\u005CFonts\u005CSCHLBKBI.TTF
p401
aVc:\u005Cwindows\u005Cfonts\u005Cariblk.ttf
p402
aVC:\u005CWINDOWS\u005CFonts\u005CRONDALO_.TTF
p403
aVC:\u005CWINDOWS\u005CFonts\u005CBRUSS___.TTF
p404
aVc:\u005Cwindows\u005Cfonts\u005Cfradmcn.ttf
p405
aVc:\u005Cwindows\u005Cfonts\u005Cniagsol.ttf
p406
aVC:\u005CWINDOWS\u005CFonts\u005Cgoodtime.ttf
p407
aVC:\u005CWINDOWS\u005CFonts\u005CVINERITC.TTF
p408
aVC:\u005CWINDOWS\u005CFonts\u005CCALIST.TTF
p409
aVC:\u005CWINDOWS\u005CFonts\u005CPRISTINA.TTF
p410
aVC:\u005CWINDOWS\u005CFonts\u005CMICROSS.TTF
p411
aVC:\u005CWINDOWS\u005CFonts\u005CBAUHS93.TTF
p412
aVC:\u005CWINDOWS\u005CFonts\u005CVLADIMIR.TTF
p413
aVC:\u005CWINDOWS\u005CFonts\u005CLTYPEB.TTF
p414
aVC:\u005CWINDOWS\u005CFonts\u005CRAVIE.TTF
p415
aVC:\u005CWINDOWS\u005CFonts\u005CSPLASH__.TTF
p416
aVC:\u005CWINDOWS\u005CFonts\u005CPERI____.TTF
p417
aVC:\u005CWINDOWS\u005CFonts\u005CLBRITEDI.TTF
p418
aVc:\u005Cwindows\u005Cfonts\u005Crock.ttf
p419
aVc:\u005Cwindows\u005Cfonts\u005Clsansdi.ttf
p420
aVc:\u005Cwindows\u005Cfonts\u005Cbrlnsb.ttf
p421
aVc:\u005Cwindows\u005Cfonts\u005Ctcb_____.ttf
p422
aVc:\u005Cwindows\u005Cfonts\u005Crockbi.ttf
p423
aVC:\u005CWINDOWS\u005CFonts\u005CGOUDOSI.TTF
p424
aVC:\u005CWINDOWS\u005CFonts\u005CFRABK.TTF
p425
aVC:\u005CWINDOWS\u005CFonts\u005CTREBUCBD.TTF
p426
aVc:\u005Cwindows\u005Cfonts\u005Cbookosbi.ttf
p427
aVc:\u005Cwindows\u005Cfonts\u005Ctimesi.ttf
p428
aVC:\u005CWINDOWS\u005CFonts\u005CTIMESBI.TTF
p429
aVC:\u005CWINDOWS\u005CFonts\u005CKARTIKA.TTF
p430
aVc:\u005Cwindows\u005Cfonts\u005Cinfroman.ttf
p431
aVC:\u005CWINDOWS\u005CFonts\u005CGILSANUB.TTF
p432
aVC:\u005CWINDOWS\u005CFonts\u005CCENTAUR.TTF
p433
aVC:\u005CWINDOWS\u005CFonts\u005CENGR.TTF
p434
aVC:\u005CWINDOWS\u005CFonts\u005CMANORLY_.TTF
p435
aVC:\u005CWINDOWS\u005CFonts\u005CDICOTME_.TTF
p436
aVC:\u005CWINDOWS\u005CFonts\u005COUTLOOK.TTF
p437
aVc:\u005Cwindows\u005Cfonts\u005Cfingerpop2.ttf
p438
aVc:\u005Cwindows\u005Cfonts\u005Ccandles_.ttf
p439
aVc:\u005Cwindows\u005Cfonts\u005Calger.ttf
p440
aVc:\u005Cwindows\u005Cfonts\u005Cmaturasc.ttf
p441
aVC:\u005CWINDOWS\u005CFonts\u005CSTENCIL.TTF
p442
aVC:\u005CWINDOWS\u005CFonts\u005CLISSEN__.TTF
p443
aVC:\u005CWINDOWS\u005CFonts\u005CVeraMoBI.ttf
p444
aVC:\u005CWINDOWS\u005CFonts\u005CARIBLK.TTF
p445
aVc:\u005Cwindows\u005Cfonts\u005Cltype.ttf
p446
aVC:\u005CWINDOWS\u005CFonts\u005CBOOKOS.TTF
p447
aVC:\u005CWINDOWS\u005CFonts\u005CVeraMoBd.ttf
p448
aVC:\u005CWINDOWS\u005CFonts\u005CLSANS.TTF
p449
aVc:\u005Cwindows\u005Cfonts\u005Cpalscri.ttf
p450
aVC:\u005CWINDOWS\u005CFonts\u005CMARGA___.TTF
p451
aVc:\u005Cwindows\u005Cfonts\u005Cgothic.ttf
p452
aVC:\u005CWINDOWS\u005CFonts\u005CPENULLI_.TTF
p453
aVC:\u005CWINDOWS\u005CFonts\u005CCOPRGTL.TTF
p454
aVc:\u005Cwindows\u005Cfonts\u005Cpristina.ttf
p455
aVC:\u005CWINDOWS\u005CFonts\u005COLDENGL.TTF
p456
aVc:\u005Cwindows\u005Cfonts\u005Cper_____.ttf
p457
aVC:\u005CWINDOWS\u005CFonts\u005Cgazzarelli.ttf
p458
aVc:\u005Cwindows\u005Cfonts\u005Cgara.ttf
p459
aVc:\u005Cwindows\u005Cfonts\u005Clfaxi.ttf
p460
aVc:\u005Cwindows\u005Cfonts\u005Cfrahv.ttf
p461
aVC:\u005CWINDOWS\u005CFonts\u005CTCMI____.TTF
p462
aVC:\u005CWINDOWS\u005CFonts\u005Ccracj___.ttf
p463
aVc:\u005Cwindows\u005Cfonts\u005Csymbol.ttf
p464
aVc:\u005Cwindows\u005Cfonts\u005Cwebdings.ttf
p465
aVC:\u005CWINDOWS\u005CFonts\u005Cbnjinx.ttf
p466
aVC:\u005CWINDOWS\u005CFonts\u005Cethnocen.ttf
p467
aVC:\u005CWINDOWS\u005CFonts\u005CRAAVI.TTF
p468
aVC:\u005CWINDOWS\u005CFonts\u005CAMETH___.TTF
p469
aVc:\u005Cwindows\u005Cfonts\u005Crefspcl.ttf
p470
aVc:\u005Cwindows\u005Cfonts\u005Cframdit.ttf
p471
aVC:\u005CWINDOWS\u005CFonts\u005CLFAXDI.TTF
p472
aVc:\u005Cwindows\u005Cfonts\u005Cgoudosi.ttf
p473
aVC:\u005CWINDOWS\u005CFonts\u005CONYX.TTF
p474
aVc:\u005Cwindows\u005Cfonts\u005Cantquai.ttf
p475
aVc:\u005Cwindows\u005Cfonts\u005Cgeorgia.ttf
p476
aVc:\u005Cwindows\u005Cfonts\u005Carialnbi.ttf
p477
aVc:\u005Cwindows\u005Cfonts\u005Cfrscript.ttf
p478
aVC:\u005CWINDOWS\u005CFonts\u005CNIAGENG.TTF
p479
aVc:\u005Cwindows\u005Cfonts\u005Cmael____.ttf
p480
aVC:\u005CWINDOWS\u005CFonts\u005CLBRITE.TTF
p481
aVc:\u005Cwindows\u005Cfonts\u005Cbod_blar.ttf
p482
aVc:\u005Cwindows\u005Cfonts\u005Ccoprgtb.ttf
p483
aVc:\u005Cwindows\u005Cfonts\u005Cgilc____.ttf
p484
aVC:\u005CWINDOWS\u005CFonts\u005Cfingerpop2.ttf
p485
aVc:\u005Cwindows\u005Cfonts\u005Ctimesbd.ttf
p486
aVC:\u005CWINDOWS\u005CFonts\u005CLSANSDI.TTF
p487
aVC:\u005CWINDOWS\u005CFonts\u005CALGER.TTF
p488
aVc:\u005Cwindows\u005Cfonts\u005Crocc____.ttf
p489
aVc:\u005Cwindows\u005Cfonts\u005Cdistant galaxy 2.ttf
p490
aVC:\u005CWINDOWS\u005CFonts\u005CWhimsy.ttf
p491
aVC:\u005CWINDOWS\u005CFonts\u005CGOTHICI.TTF
p492
aVC:\u005CWINDOWS\u005CFonts\u005CTCCB____.TTF
p493
aVC:\u005CWINDOWS\u005CFonts\u005CHARLOWSI.TTF
p494
aVc:\u005Cwindows\u005Cfonts\u005Ctccm____.ttf
p495
aVc:\u005Cwindows\u005Cfonts\u005Ccomic.ttf
p496
aVC:\u005CWINDOWS\u005CFonts\u005Chandmeds.ttf
p497
aVc:\u005Cwindows\u005Cfonts\u005Ctahoma.ttf
p498
aVc:\u005Cwindows\u005Cfonts\u005Cgothicb.ttf
p499
aVC:\u005CWINDOWS\u005CFonts\u005CGILLUBCD.TTF
p500
aVc:\u005Cwindows\u005Cfonts\u005Cvivaldii.ttf
p501
aVC:\u005CWINDOWS\u005CFonts\u005CINFROMAN.TTF
p502
aVC:\u005CWINDOWS\u005CFonts\u005CGOUDYSTO.TTF
p503
aVc:\u005Cwindows\u005Cfonts\u005Cbookos.ttf
p504
aVC:\u005CWINDOWS\u005CFonts\u005CMAIAN.TTF
p505
aVc:\u005Cwindows\u005Cfonts\u005Cframd.ttf
p506
aVC:\u005CWINDOWS\u005CFonts\u005CFRADMCN.TTF
p507
aVc:\u005Cwindows\u005Cfonts\u005Cbrlnsdb.ttf
p508
aVc:\u005Cwindows\u005Cfonts\u005Cperb____.ttf
p509
aVc:\u005Cwindows\u005Cfonts\u005Charveit_.ttf
p510
aVc:\u005Cwindows\u005Cfonts\u005Crage.ttf
p511
aVc:\u005Cwindows\u005Cfonts\u005Clbrite.ttf
p512
aVc:\u005Cwindows\u005Cfonts\u005Cyearsupplyoffairycakes.ttf
p513
aVc:\u005Cwindows\u005Cfonts\u005Cbod_cb.ttf
p514
aVc:\u005Cwindows\u005Cfonts\u005Cparchm.ttf
p515
aVc:\u005Cwindows\u005Cfonts\u005Charlowsi.ttf
p516
aVc:\u005Cwindows\u005Cfonts\u005Cimpact.ttf
p517
aVC:\u005CWINDOWS\u005CFonts\u005CCENSCBK.TTF
p518
aVC:\u005CWINDOWS\u005CFonts\u005CELEPHNTI.TTF
p519
aVc:\u005Cwindows\u005Cfonts\u005Cshowg.ttf
p520
aVc:\u005Cwindows\u005Cfonts\u005Carialni.ttf
p521
aVc:\u005Cwindows\u005Cfonts\u005Cbalth___.ttf
p522
aVC:\u005CWINDOWS\u005CFonts\u005CVERDANA.TTF
p523
aVC:\u005CWINDOWS\u005CFonts\u005CELEPHNT.TTF
p524
aVc:\u005Cwindows\u005Cfonts\u005Cgothici.ttf
p525
aVC:\u005CWINDOWS\u005CFonts\u005CNIAMEY__.TTF
p526
aVC:\u005CWINDOWS\u005CFonts\u005COCRAEXT.TTF
p527
aVC:\u005CWINDOWS\u005CFonts\u005CTEMPSITC.TTF
p528
aVC:\u005CWINDOWS\u005CFonts\u005CCOURBD.TTF
p529
aVC:\u005CWINDOWS\u005CFonts\u005CCOMIC.TTF
p530
aVC:\u005CWINDOWS\u005CFonts\u005CCALIFB.TTF
p531
aVc:\u005Cwindows\u005Cfonts\u005Casimov.ttf
p532
aVc:\u005Cwindows\u005Cfonts\u005Cgeorgiai.ttf
p533
aVC:\u005CWINDOWS\u005CFonts\u005CBALTH___.TTF
p534
aVc:\u005Cwindows\u005Cfonts\u005Cforte.ttf
p535
aVc:\u005Cwindows\u005Cfonts\u005Cpala.ttf
p536
aVc:\u005Cwindows\u005Cfonts\u005Cestre.ttf
p537
aVC:\u005CWINDOWS\u005CFonts\u005Cneon2.ttf
p538
aVc:\u005Cwindows\u005Cfonts\u005Cgoudos.ttf
p539
aVc:\u005Cwindows\u005Cfonts\u005Ctcceb.ttf
p540
aVC:\u005CWINDOWS\u005CFonts\u005CTUNGA.TTF
p541
aVC:\u005CWINDOWS\u005CFonts\u005CVERDANAZ.TTF
p542
aVc:\u005Cwindows\u005Cfonts\u005Cstencil.ttf
p543
aVc:\u005Cwindows\u005Cfonts\u005Csnap____.ttf
p544
aVc:\u005Cwindows\u005Cfonts\u005Cagencyr.ttf
p545
aVc:\u005Cwindows\u005Cfonts\u005Citcedscr.ttf
p546
aVC:\u005CWINDOWS\u005CFonts\u005CARIALBD.TTF
p547
aVC:\u005CWINDOWS\u005CFonts\u005CMATURASC.TTF
p548
aVC:\u005CWINDOWS\u005CFonts\u005CBELLB.TTF
p549
aVC:\u005CWINDOWS\u005CFonts\u005CVeraMoIt.ttf
p550
aVC:\u005CWINDOWS\u005CFonts\u005CGARABD.TTF
p551
aVC:\u005CWINDOWS\u005CFonts\u005CBERNHC.TTF
p552
aVC:\u005CWINDOWS\u005CFonts\u005CFRABKIT.TTF
p553
aVc:\u005Cwindows\u005Cfonts\u005Cgeorgiab.ttf
p554
aVC:\u005CWINDOWS\u005CFonts\u005CERASMD.TTF
p555
aVC:\u005CWINDOWS\u005CFonts\u005CVRINDA.TTF
p556
aVc:\u005Cwindows\u005Cfonts\u005Cethnocen.ttf
p557
aVc:\u005Cwindows\u005Cfonts\u005Cniageng.ttf
p558
aVC:\u005CWINDOWS\u005CFonts\u005CHARNGTON.TTF
p559
aVc:\u005Cwindows\u005Cfonts\u005Cdigifit.ttf
p560
aVC:\u005CWINDOWS\u005CFonts\u005CBOD_BLAR.TTF
p561
aVC:\u005CWINDOWS\u005CFonts\u005CNIAGSOL.TTF
p562
aVC:\u005CWINDOWS\u005CFonts\u005CBROADW.TTF
p563
aVC:\u005CWINDOWS\u005CFonts\u005C18cents.ttf
p564
aVc:\u005Cwindows\u005Cfonts\u005Clbritei.ttf
p565
aVc:\u005Cwindows\u005Cfonts\u005Chtowerti.ttf
p566
aVC:\u005CWINDOWS\u005CFonts\u005Cbobcat.ttf
p567
aVC:\u005CWINDOWS\u005CFonts\u005CBRLNSB.TTF
p568
aVc:\u005Cwindows\u005Cfonts\u005Citckrist.ttf
p569
aVC:\u005CWINDOWS\u005CFonts\u005CCOURBI.TTF
p570
aVc:\u005Cwindows\u005Cfonts\u005Clbrited.ttf
p571
aVC:\u005CWINDOWS\u005CFonts\u005CROCKBI.TTF
p572
aVC:\u005CWINDOWS\u005CFonts\u005CBOOKOSBI.TTF
p573
aVC:\u005CWINDOWS\u005CFonts\u005CHTOWERT.TTF
p574
aVc:\u005Cwindows\u005Cfonts\u005Cbradhitc.ttf
p575
aVC:\u005CWINDOWS\u005CFonts\u005CARIALN.TTF
p576
aVC:\u005CWINDOWS\u005CFonts\u005CBOD_CB.TTF
p577
aVC:\u005CWINDOWS\u005CFonts\u005CEMMETT__.TTF
p578
aVC:\u005CWINDOWS\u005CFonts\u005CITCEDSCR.TTF
p579
aVc:\u005Cwindows\u005Cfonts\u005Cvladimir.ttf
p580
aVc:\u005Cwindows\u005Cfonts\u005Cerasbd.ttf
p581
aVc:\u005Cwindows\u005Cfonts\u005Craavi.ttf
p582
aVc:\u005Cwindows\u005Cfonts\u005Cbssym7.ttf
p583
aVC:\u005CWINDOWS\u005CFonts\u005CSHOWG.TTF
p584
aVc:\u005Cwindows\u005Cfonts\u005Ctunga.ttf
p585
aVc:\u005Cwindows\u005Cfonts\u005Cbod_ci.ttf
p586
aVc:\u005Cwindows\u005Cfonts\u005Cflubber.ttf
p587
aVC:\u005CWINDOWS\u005CFonts\u005CUNPACT__.TTF
p588
aVc:\u005Cwindows\u005Cfonts\u005Cinductio.ttf
p589
aVC:\u005CWINDOWS\u005CFonts\u005CIMPACT.TTF
p590
aVC:\u005CWINDOWS\u005CFonts\u005CGOUDOS.TTF
p591
aVc:\u005Cwindows\u005Cfonts\u005Cverdana.ttf
p592
aVC:\u005CWINDOWS\u005CFonts\u005CSYLFAEN.TTF
p593
aVc:\u005Cwindows\u005Cfonts\u005C18cents.ttf
p594
aVC:\u005CWINDOWS\u005CFonts\u005Cmael____.ttf
p595
aVc:\u005Cwindows\u005Cfonts\u005Clhandw.ttf
p596
aVC:\u005CWINDOWS\u005CFonts\u005Cflubber.ttf
p597
aVc:\u005Cwindows\u005Cfonts\u005Crockeb.ttf
p598
aVC:\u005CWINDOWS\u005CFonts\u005CBOOKOSI.TTF
p599
aVc:\u005Cwindows\u005Cfonts\u005Cgreek_i.ttf
p600
aVC:\u005CWINDOWS\u005CFonts\u005CLTYPEBO.TTF
p601
aVC:\u005CWINDOWS\u005CFonts\u005CGARAIT.TTF
p602
aVc:\u005Cwindows\u005Cfonts\u005Cplaybill.ttf
p603
aVc:\u005Cwindows\u005Cfonts\u005Cltypeb.ttf
p604
aVC:\u005CWINDOWS\u005CFonts\u005CGARA.TTF
p605
aVc:\u005Cwindows\u005Cfonts\u005Cparryhotter.ttf
p606
aVC:\u005CWINDOWS\u005CFonts\u005CCALIFI.TTF
p607
aVc:\u005Cwindows\u005Cfonts\u005Cbod_r.ttf
p608
aVC:\u005CWINDOWS\u005CFonts\u005CLFAXD.TTF
p609
aVC:\u005CWINDOWS\u005CFonts\u005CHARVEST_.TTF
p610
aVC:\u005CWINDOWS\u005CFonts\u005CREFSAN.TTF
p611
aVc:\u005Cwindows\u005Cfonts\u005Cbod_pstc.ttf
p612
aVC:\u005CWINDOWS\u005CFonts\u005CVERDANAB.TTF
p613
aVc:\u005Cwindows\u005Cfonts\u005Cxfiles.ttf
p614
aVC:\u005CWINDOWS\u005CFonts\u005CLSANSD.TTF
p615
aVC:\u005CWINDOWS\u005CFonts\u005CLATINWD.TTF
p616
aVc:\u005Cwindows\u005Cfonts\u005Cshruti.ttf
p617
aVC:\u005CWINDOWS\u005CFonts\u005CIMPRISHA.TTF
p618
aVC:\u005CWINDOWS\u005CFonts\u005CTARZAN__.TTF
p619
aVC:\u005CWINDOWS\u005CFonts\u005CFTLTLT.TTF
p620
aVc:\u005Cwindows\u005Cfonts\u005Cperbi___.ttf
p621
aVC:\u005CWINDOWS\u005CFonts\u005CGreek_i.ttf
p622
aVc:\u005Cwindows\u005Cfonts\u005Cpalabi.ttf
p623
aVc:\u005Cwindows\u005Cfonts\u005Cravie.ttf
p624
aVc:\u005Cwindows\u005Cfonts\u005Cerasdemi.ttf
p625
aVC:\u005CWINDOWS\u005CFonts\u005CBALLET__.TTF
p626
aVC:\u005CWINDOWS\u005CFonts\u005CMISTRAL.TTF
p627
aVC:\u005CWINDOWS\u005CFonts\u005CPALENT__.TTF
p628
aVC:\u005CWINDOWS\u005CFonts\u005CBOD_BLAI.TTF
p629
aVc:\u005Cwindows\u005Cfonts\u005Cscriptbl.ttf
p630
aVc:\u005Cwindows\u005Cfonts\u005Cltromatic.ttf
p631
aVc:\u005Cwindows\u005Cfonts\u005Ccalistbi.ttf
p632
aVc:\u005Cwindows\u005Cfonts\u005Coldengl.ttf
p633
aVc:\u005Cwindows\u005Cfonts\u005Cmvboli.ttf
p634
aVC:\u005CWINDOWS\u005CFonts\u005CWEBDINGS.TTF
p635
aVc:\u005Cwindows\u005Cfonts\u005Cbellb.ttf
p636
aVC:\u005CWINDOWS\u005CFonts\u005CBELL.TTF
p637
aVC:\u005CWINDOWS\u005CFonts\u005CARIALUNI.TTF
p638
aVc:\u005Cwindows\u005Cfonts\u005Cpoorich.ttf
p639
aVC:\u005CWINDOWS\u005CFonts\u005CCOPRGTB.TTF
p640
aVC:\u005CWINDOWS\u005CFonts\u005CGEORGIAI.TTF
p641
aVc:\u005Cwindows\u005Cfonts\u005Cbod_cbi.ttf
p642
aVc:\u005Cwindows\u005Cfonts\u005Cbroadw.ttf
p643
aVC:\u005CWINDOWS\u005CFonts\u005CMOD20.TTF
p644
asS'_FontManager__default_weight'
p645
S'normal'
p646
sS'default_size'
p647
NsS'defaultFont'
p648
g9
sS'afmdict'
p649
(dp650
S'New Century Schoolbook'
p651
(dp652
S'italic'
p653
(dp654
g646
(dp655
I500
(dp656
g646
(dp657
S'scalable'
p658
S'C:\\Python24\\lib\\site-packages\\matplotlib\\mpl-data\\fonts\\afm\\pncri8a.afm'
p659
sssI700
(dp660
g646
(dp661
g658
S'C:\\Python24\\lib\\site-packages\\matplotlib\\mpl-data\\fonts\\afm\\pncbi8a.afm'
p662
sssssg646
(dp663
g646
(dp664
I500
(dp665
g646
(dp666
g658
S'C:\\Python24\\lib\\site-packages\\matplotlib\\mpl-data\\fonts\\afm\\pncr8a.afm'
p667
sssI700
(dp668
g646
(dp669
g658
S'C:\\Python24\\lib\\site-packages\\matplotlib\\mpl-data\\fonts\\afm\\pncb8a.afm'
p670
ssssssS'ITC Zapf Dingbats'
p671
(dp672
g646
(dp673
g646
(dp674
I500
(dp675
g646
(dp676
g658
S'C:\\Python24\\lib\\site-packages\\matplotlib\\mpl-data\\fonts\\afm\\pzdr.afm'
p677
ssssssS'Courier'
p678
(dp679
g653
(dp680
g646
(dp681
I700
(dp682
g646
(dp683
g658
S'C:\\Python24\\lib\\site-packages\\matplotlib\\mpl-data\\fonts\\afm\\pcrbo8a.afm'
p684
sssI500
(dp685
g646
(dp686
g658
S'C:\\Python24\\lib\\site-packages\\matplotlib\\mpl-data\\fonts\\afm\\pcrro8a.afm'
p687
sssssg646
(dp688
g646
(dp689
I700
(dp690
g646
(dp691
g658
S'C:\\Python24\\lib\\site-packages\\matplotlib\\mpl-data\\fonts\\afm\\pcrb8a.afm'
p692
sssI500
(dp693
g646
(dp694
g658
S'C:\\Python24\\lib\\site-packages\\matplotlib\\mpl-data\\fonts\\afm\\pcrr8a.afm'
p695
ssssssS'Symbol'
p696
(dp697
g646
(dp698
g646
(dp699
I500
(dp700
g646
(dp701
g658
S'C:\\Python24\\lib\\site-packages\\matplotlib\\mpl-data\\fonts\\afm\\psyr.afm'
p702
ssssssS'Computer Modern'
p703
(dp704
g653
(dp705
g646
(dp706
I500
(dp707
g646
(dp708
g658
S'C:\\Python24\\lib\\site-packages\\matplotlib\\mpl-data\\fonts\\afm\\cmmi10.afm'
p709
sssssg646
(dp710
g646
(dp711
I500
(dp712
g646
(dp713
g658
S'C:\\Python24\\lib\\site-packages\\matplotlib\\mpl-data\\fonts\\afm\\cmtt10.afm'
p714
ssssssS'Helvetica'
p715
(dp716
g653
(dp717
g646
(dp718
I200
(dp719
g646
(dp720
g658
S'C:\\Python24\\lib\\site-packages\\matplotlib\\mpl-data\\fonts\\afm\\phvlo8a.afm'
p721
sssI700
(dp722
g646
(dp723
g658
S'C:\\Python24\\lib\\site-packages\\matplotlib\\mpl-data\\fonts\\afm\\phvbo8an.afm'
p724
sssI500
(dp725
g646
(dp726
g658
S'C:\\Python24\\lib\\site-packages\\matplotlib\\mpl-data\\fonts\\afm\\phvro8an.afm'
p727
sssssg646
(dp728
g646
(dp729
I200
(dp730
g646
(dp731
g658
S'C:\\Python24\\lib\\site-packages\\matplotlib\\mpl-data\\fonts\\afm\\phvl8a.afm'
p732
sssI500
(dp733
g646
(dp734
g658
S'C:\\Python24\\lib\\site-packages\\matplotlib\\mpl-data\\fonts\\afm\\phvr8an.afm'
p735
sssI700
(dp736
g646
(dp737
g658
S'C:\\Python24\\lib\\site-packages\\matplotlib\\mpl-data\\fonts\\afm\\phvb8an.afm'
p738
ssssssS'Times'
p739
(dp740
g653
(dp741
g646
(dp742
I500
(dp743
g646
(dp744
g658
S'C:\\Python24\\lib\\site-packages\\matplotlib\\mpl-data\\fonts\\afm\\ptmri8a.afm'
p745
sssI700
(dp746
g646
(dp747
g658
S'C:\\Python24\\lib\\site-packages\\matplotlib\\mpl-data\\fonts\\afm\\ptmbi8a.afm'
p748
sssssg646
(dp749
g646
(dp750
I500
(dp751
g646
(dp752
g658
S'C:\\Python24\\lib\\site-packages\\matplotlib\\mpl-data\\fonts\\afm\\ptmr8a.afm'
p753
sssI700
(dp754
g646
(dp755
g658
S'C:\\Python24\\lib\\site-packages\\matplotlib\\mpl-data\\fonts\\afm\\ptmb8a.afm'
p756
ssssssS'Utopia'
p757
(dp758
g653
(dp759
g646
(dp760
I400
(dp761
g646
(dp762
g658
S'C:\\Python24\\lib\\site-packages\\matplotlib\\mpl-data\\fonts\\afm\\putri8a.afm'
p763
sssI700
(dp764
g646
(dp765
g658
S'C:\\Python24\\lib\\site-packages\\matplotlib\\mpl-data\\fonts\\afm\\putbi8a.afm'
p766
sssssg646
(dp767
g646
(dp768
I400
(dp769
g646
(dp770
g658
S'C:\\Python24\\lib\\site-packages\\matplotlib\\mpl-data\\fonts\\afm\\putr8a.afm'
p771
sssI700
(dp772
g646
(dp773
g658
S'C:\\Python24\\lib\\site-packages\\matplotlib\\mpl-data\\fonts\\afm\\putb8a.afm'
p774
ssssssS'ITC Zapf Chancery'
p775
(dp776
g653
(dp777
g646
(dp778
I500
(dp779
g646
(dp780
g658
S'C:\\Python24\\lib\\site-packages\\matplotlib\\mpl-data\\fonts\\afm\\pzcmi8a.afm'
p781
ssssssS'ITC Bookman'
p782
(dp783
g653
(dp784
g646
(dp785
I600
(dp786
g646
(dp787
g658
S'C:\\Python24\\lib\\site-packages\\matplotlib\\mpl-data\\fonts\\afm\\pbkdi8a.afm'
p788
sssI200
(dp789
g646
(dp790
g658
S'C:\\Python24\\lib\\site-packages\\matplotlib\\mpl-data\\fonts\\afm\\pbkli8a.afm'
p791
sssssg646
(dp792
g646
(dp793
I600
(dp794
g646
(dp795
g658
S'C:\\Python24\\lib\\site-packages\\matplotlib\\mpl-data\\fonts\\afm\\pbkd8a.afm'
p796
sssI200
(dp797
g646
(dp798
g658
S'C:\\Python24\\lib\\site-packages\\matplotlib\\mpl-data\\fonts\\afm\\pbkl8a.afm'
p799
ssssssS'Palatino'
p800
(dp801
g653
(dp802
g646
(dp803
I700
(dp804
g646
(dp805
g658
S'C:\\Python24\\lib\\site-packages\\matplotlib\\mpl-data\\fonts\\afm\\pplbi8a.afm'
p806
sssI500
(dp807
g646
(dp808
g658
S'C:\\Python24\\lib\\site-packages\\matplotlib\\mpl-data\\fonts\\afm\\pplri8a.afm'
p809
sssssg646
(dp810
g646
(dp811
I700
(dp812
g646
(dp813
g658
S'C:\\Python24\\lib\\site-packages\\matplotlib\\mpl-data\\fonts\\afm\\pplb8a.afm'
p814
sssI500
(dp815
g646
(dp816
g658
S'C:\\Python24\\lib\\site-packages\\matplotlib\\mpl-data\\fonts\\afm\\pplr8a.afm'
p817
ssssssS'ITC Avant Garde Gothic'
p818
(dp819
g653
(dp820
g646
(dp821
I400
(dp822
g646
(dp823
g658
S'C:\\Python24\\lib\\site-packages\\matplotlib\\mpl-data\\fonts\\afm\\pagko8a.afm'
p824
sssI600
(dp825
g646
(dp826
g658
S'C:\\Python24\\lib\\site-packages\\matplotlib\\mpl-data\\fonts\\afm\\pagdo8a.afm'
p827
sssssg646
(dp828
g646
(dp829
I600
(dp830
g646
(dp831
g658
S'C:\\Python24\\lib\\site-packages\\matplotlib\\mpl-data\\fonts\\afm\\pagd8a.afm'
p832
sssI400
(dp833
g646
(dp834
g658
S'C:\\Python24\\lib\\site-packages\\matplotlib\\mpl-data\\fonts\\afm\\pagk8a.afm'
p835
sssssssS'afmfiles'
p836
(lp837
g721
ag695
aS'C:\\Python24\\lib\\site-packages\\matplotlib\\mpl-data\\fonts\\afm\\phvro8a.afm'
p838
aS'C:\\Python24\\lib\\site-packages\\matplotlib\\mpl-data\\fonts\\afm\\phvb8a.afm'
p839
ag756
ag753
ag774
ag788
aS'C:\\Python24\\lib\\site-packages\\matplotlib\\mpl-data\\fonts\\afm\\cmsy10.afm'
p840
ag662
ag809
ag824
ag748
ag738
ag659
ag670
ag817
ag771
ag796
ag677
aS'C:\\Python24\\lib\\site-packages\\matplotlib\\mpl-data\\fonts\\afm\\phvr8a.afm'
p841
ag687
ag735
ag814
ag745
ag832
aS'C:\\Python24\\lib\\site-packages\\matplotlib\\mpl-data\\fonts\\afm\\cmex10.afm'
p842
ag766
ag806
ag684
ag827
ag763
ag709
ag835
aS'C:\\Python24\\lib\\site-packages\\matplotlib\\mpl-data\\fonts\\afm\\cmr10.afm'
p843
ag714
ag702
ag727
ag781
ag799
ag692
aS'C:\\Python24\\lib\\site-packages\\matplotlib\\mpl-data\\fonts\\afm\\phvbo8a.afm'
p844
ag791
ag732
ag724
ag667
asS'ttfdict'
p845
(dp846
S'Bodoni MT Condensed'
p847
(dp848
g653
(dp849
g646
(dp850
I400
(dp851
S'condensed'
p852
(dp853
g658
g586
sssI700
(dp854
g852
(dp855
g658
g642
sssssg646
(dp856
g646
(dp857
I400
(dp858
g852
(dp859
g658
g86
sssI700
(dp860
g852
(dp861
g658
g577
ssssssS'cmsy10'
p862
(dp863
g646
(dp864
g646
(dp865
I400
(dp866
g646
(dp867
g658
g28
ssssssS'Stencil'
p868
(dp869
g646
(dp870
g646
(dp871
I400
(dp872
g646
(dp873
g658
g543
ssssssS'Arial'
p874
(dp875
g653
(dp876
g646
(dp877
I400
(dp878
g646
(dp879
g658
g281
sssI700
(dp880
g646
(dp881
g658
g272
sssssg646
(dp882
g646
(dp883
I400
(dp884
g646
(dp885
g658
g198
sssI700
(dp886
g646
(dp887
g658
g547
ssssssS'Perpetua Titling MT'
p888
(dp889
g646
(dp890
g646
(dp891
I200
(dp892
g646
(dp893
g658
g277
sssI700
(dp894
g646
(dp895
g658
g325
ssssssS'Haettenschweiler'
p896
(dp897
g646
(dp898
g646
(dp899
I400
(dp900
g646
(dp901
g658
g365
ssssssS'Addled'
p902
(dp903
g646
(dp904
g646
(dp905
I400
(dp906
g646
(dp907
g658
g111
ssssssS'Verdana'
p908
(dp909
g653
(dp910
g646
(dp911
I400
(dp912
g646
(dp913
g658
g289
sssI700
(dp914
g646
(dp915
g658
g542
sssssg646
(dp916
g646
(dp917
I400
(dp918
g646
(dp919
g658
g592
sssI700
(dp920
g646
(dp921
g658
g613
ssssssS'Crandall'
p922
(dp923
g646
(dp924
g646
(dp925
I400
(dp926
g646
(dp927
g658
g290
ssssssS'Neon Lights'
p928
(dp929
g646
(dp930
g646
(dp931
I200
(dp932
g646
(dp933
g658
g205
ssssssS'Amethyst'
p934
(dp935
g646
(dp936
g646
(dp937
I400
(dp938
g646
(dp939
g658
g469
ssssssS'Elephant'
p940
(dp941
g653
(dp942
g646
(dp943
I400
(dp944
g646
(dp945
g658
g519
sssssg646
(dp946
g646
(dp947
I400
(dp948
g646
(dp949
g658
g524
ssssssS'BolsterBold'
p950
(dp951
g646
(dp952
g646
(dp953
I700
(dp954
g646
(dp955
g658
g348
ssssssS'Terminator Two'
p956
(dp957
g646
(dp958
g646
(dp959
I400
(dp960
g646
(dp961
g658
g120
ssssssS'Gill Sans MT Ext Condensed Bold'
p962
(dp963
g646
(dp964
g646
(dp965
I700
(dp966
g852
(dp967
g658
g310
ssssssS'Geotype TT'
p968
(dp969
g646
(dp970
g646
(dp971
I400
(dp972
g646
(dp973
g658
g206
ssssssS'Franklin Gothic Demi Cond'
p974
(dp975
g646
(dp976
g646
(dp977
I600
(dp978
g852
(dp979
g658
g507
ssssssS'Bodoni MT Black'
p980
(dp981
g653
(dp982
g646
(dp983
I900
(dp984
g646
(dp985
g658
g629
sssssg646
(dp986
g646
(dp987
I900
(dp988
g646
(dp989
g658
g561
ssssssS'Franklin Gothic Heavy'
p990
(dp991
g653
(dp992
g646
(dp993
I800
(dp994
g646
(dp995
g658
g213
sssssg646
(dp996
g646
(dp997
I800
(dp998
g646
(dp999
g658
g461
ssssssS'Palace Script MT'
p1000
(dp1001
g646
(dp1002
g646
(dp1003
I400
(dp1004
g646
(dp1005
g658
g450
ssssssS'MV Boli'
p1006
(dp1007
g646
(dp1008
g646
(dp1009
I400
(dp1010
g646
(dp1011
g658
g634
ssssssS'Shruti'
p1012
(dp1013
g646
(dp1014
g646
(dp1015
I400
(dp1016
g646
(dp1017
g658
g617
ssssssS'Ravie'
p1018
(dp1019
g646
(dp1020
g646
(dp1021
I400
(dp1022
g646
(dp1023
g658
g624
ssssssS'Modern No. 20'
p1024
(dp1025
g646
(dp1026
g646
(dp1027
I400
(dp1028
g646
(dp1029
g658
g644
ssssssS'Margaret'
p1030
(dp1031
g646
(dp1032
g646
(dp1033
I400
(dp1034
g646
(dp1035
g658
g451
ssssssS'Perpetua'
p1036
(dp1037
g653
(dp1038
g646
(dp1039
I400
(dp1040
g646
(dp1041
g658
g417
sssI700
(dp1042
g646
(dp1043
g658
g621
sssssg646
(dp1044
g646
(dp1045
I400
(dp1046
g646
(dp1047
g658
g457
sssI700
(dp1048
g646
(dp1049
g658
g509
ssssssS'Bering'
p1050
(dp1051
g646
(dp1052
g646
(dp1053
I400
(dp1054
g646
(dp1055
g658
g99
ssssssS'Good Times'
p1056
(dp1057
g646
(dp1058
g646
(dp1059
I400
(dp1060
g646
(dp1061
g658
g97
ssssssS'Bookman Old Style'
p1062
(dp1063
g653
(dp1064
g646
(dp1065
I400
(dp1066
g646
(dp1067
g658
g599
sssI700
(dp1068
g646
(dp1069
g658
g573
sssssg646
(dp1070
g646
(dp1071
I400
(dp1072
g646
(dp1073
g658
g504
sssI700
(dp1074
g646
(dp1075
g658
g209
ssssssS'Kunstler Script'
p1076
(dp1077
g646
(dp1078
g646
(dp1079
I400
(dp1080
g646
(dp1081
g658
g224
ssssssS'Eras Light ITC'
p1082
(dp1083
g646
(dp1084
g646
(dp1085
I200
(dp1086
g646
(dp1087
g658
g319
ssssssS'Harvest'
p1088
(dp1089
g646
(dp1090
g646
(dp1091
I400
(dp1092
g646
(dp1093
g658
g610
ssssssS'Rockwell Extra Bold'
p1094
(dp1095
g646
(dp1096
g646
(dp1097
I700
(dp1098
g646
(dp1099
g658
g598
ssssssS'Asimov'
p1100
(dp1101
g646
(dp1102
g646
(dp1103
I400
(dp1104
g646
(dp1105
g658
g307
ssssssS'PenultimateLight'
p1106
(dp1107
g646
(dp1108
g646
(dp1109
I200
(dp1110
g646
(dp1111
g658
g453
ssssssS'STIXSize4'
p1112
(dp1113
g646
(dp1114
g646
(dp1115
I400
(dp1116
g646
(dp1117
g658
g27
sssI700
(dp1118
g646
(dp1119
g658
g38
ssssssS'STIXSize5'
p1120
(dp1121
g646
(dp1122
g646
(dp1123
I400
(dp1124
g646
(dp1125
g658
g29
ssssssS'STIXSize2'
p1126
(dp1127
g646
(dp1128
g646
(dp1129
I400
(dp1130
g646
(dp1131
g658
g31
sssI700
(dp1132
g646
(dp1133
g658
g22
ssssssS'STIXSize3'
p1134
(dp1135
g646
(dp1136
g646
(dp1137
I400
(dp1138
g646
(dp1139
g658
g23
sssI700
(dp1140
g646
(dp1141
g658
g36
ssssssS'Estrangelo Edessa'
p1142
(dp1143
g646
(dp1144
g646
(dp1145
I400
(dp1146
g646
(dp1147
g658
g537
ssssssS'STIXSize1'
p1148
(dp1149
g646
(dp1150
g646
(dp1151
I400
(dp1152
g646
(dp1153
g658
g11
sssI700
(dp1154
g646
(dp1155
g658
g18
ssssssS'Bell MT'
p1156
(dp1157
g653
(dp1158
g646
(dp1159
I400
(dp1160
g646
(dp1161
g658
g299
sssssg646
(dp1162
g646
(dp1163
I400
(dp1164
g646
(dp1165
g658
g637
sssI700
(dp1166
g646
(dp1167
g658
g636
ssssssS'Almonte Snow'
p1168
(dp1169
g646
(dp1170
g646
(dp1171
I400
(dp1172
g646
(dp1173
g658
g189
ssssssS'Arial Narrow'
p1174
(dp1175
g653
(dp1176
g646
(dp1177
I400
(dp1178
g852
(dp1179
g658
g521
sssI700
(dp1180
g852
(dp1181
g658
g477
sssssg646
(dp1182
g646
(dp1183
I400
(dp1184
g852
(dp1185
g658
g576
sssI700
(dp1186
g852
(dp1187
g658
g347
ssssssS'Lucida Sans'
p1188
(dp1189
g653
(dp1190
g646
(dp1191
I400
(dp1192
g646
(dp1193
g658
g136
sssI700
(dp1194
g646
(dp1195
g658
g487
sssssg646
(dp1196
g646
(dp1197
I400
(dp1198
g646
(dp1199
g658
g449
sssI700
(dp1200
g646
(dp1201
g658
g615
ssssssS'Harrington'
p1202
(dp1203
g646
(dp1204
g646
(dp1205
I400
(dp1206
g646
(dp1207
g658
g559
ssssssS'cmtt10'
p1208
(dp1209
g646
(dp1210
g646
(dp1211
I400
(dp1212
g646
(dp1213
g658
g6
ssssssS'Calligraphic'
p1214
(dp1215
g646
(dp1216
g646
(dp1217
I400
(dp1218
g646
(dp1219
g658
g89
ssssssS'Vivaldi'
p1220
(dp1221
g653
(dp1222
g646
(dp1223
I400
(dp1224
g646
(dp1225
g658
g501
ssssssS'MS Reference Sans Serif'
p1226
(dp1227
g646
(dp1228
g646
(dp1229
I400
(dp1230
g646
(dp1231
g658
g611
ssssssS'MS Outlook'
p1232
(dp1233
g646
(dp1234
g646
(dp1235
I400
(dp1236
g646
(dp1237
g658
g437
ssssssS'Old English Text MT'
p1238
(dp1239
g646
(dp1240
g646
(dp1241
I400
(dp1242
g646
(dp1243
g658
g633
ssssssS'STIXNonUnicode'
p1244
(dp1245
g653
(dp1246
g646
(dp1247
I400
(dp1248
g646
(dp1249
g658
g35
sssI700
(dp1250
g646
(dp1251
g658
g26
sssssg646
(dp1252
g646
(dp1253
I400
(dp1254
g646
(dp1255
g658
g21
sssI700
(dp1256
g646
(dp1257
g658
g5
ssssssS'Century'
p1258
(dp1259
g646
(dp1260
g646
(dp1261
I400
(dp1262
g646
(dp1263
g658
g346
ssssssS'Courier New'
p1264
(dp1265
g653
(dp1266
g646
(dp1267
I400
(dp1268
g646
(dp1269
g658
g280
sssI700
(dp1270
g646
(dp1271
g658
g570
sssssg646
(dp1272
g646
(dp1273
I400
(dp1274
g646
(dp1275
g658
g252
sssI700
(dp1276
g646
(dp1277
g658
g529
ssssssS'Bookshelf Symbol 7'
p1278
(dp1279
g646
(dp1280
g646
(dp1281
I400
(dp1282
g646
(dp1283
g658
g583
ssssssS'Rage Italic'
p1284
(dp1285
g653
(dp1286
g646
(dp1287
I400
(dp1288
g646
(dp1289
g658
g511
ssssssS'Agency FB'
p1290
(dp1291
g646
(dp1292
g646
(dp1293
I400
(dp1294
g646
(dp1295
g658
g545
sssI700
(dp1296
g646
(dp1297
g658
g139
ssssssS'Eras Bold ITC'
p1298
(dp1299
g646
(dp1300
g646
(dp1301
I700
(dp1302
g646
(dp1303
g658
g581
ssssssS'BN Jinx'
p1304
(dp1305
g646
(dp1306
g646
(dp1307
I400
(dp1308
g646
(dp1309
g658
g94
ssssssS'Lucida Bright'
p1310
(dp1311
g653
(dp1312
g646
(dp1313
I400
(dp1314
g646
(dp1315
g658
g565
sssI700
(dp1316
g646
(dp1317
g658
g418
sssssg646
(dp1318
g646
(dp1319
I400
(dp1320
g646
(dp1321
g658
g512
sssI700
(dp1322
g646
(dp1323
g658
g571
ssssssS'HarvestItal'
p1324
(dp1325
g646
(dp1326
g646
(dp1327
I400
(dp1328
g646
(dp1329
g658
g510
ssssssS'Gazzarelli'
p1330
(dp1331
g646
(dp1332
g646
(dp1333
I400
(dp1334
g646
(dp1335
g658
g48
ssssssS'Franklin Gothic Book'
p1336
(dp1337
g653
(dp1338
g646
(dp1339
I400
(dp1340
g646
(dp1341
g658
g553
sssssg646
(dp1342
g646
(dp1343
I400
(dp1344
g646
(dp1345
g658
g425
ssssssS'Impact'
p1346
(dp1347
g646
(dp1348
g646
(dp1349
I400
(dp1350
g646
(dp1351
g658
g590
ssssssS'DicotMedium'
p1352
(dp1353
g646
(dp1354
g646
(dp1355
I500
(dp1356
g646
(dp1357
g658
g436
ssssssS'Copperplate Gothic Light'
p1358
(dp1359
g646
(dp1360
g646
(dp1361
I200
(dp1362
g646
(dp1363
g658
g454
ssssssS'Wingdings 3'
p1364
(dp1365
g646
(dp1366
g646
(dp1367
I400
(dp1368
g646
(dp1369
g658
g245
ssssssS'Wingdings 2'
p1370
(dp1371
g646
(dp1372
g646
(dp1373
I400
(dp1374
g646
(dp1375
g658
g192
ssssssS'Snap ITC'
p1376
(dp1377
g646
(dp1378
g646
(dp1379
I400
(dp1380
g646
(dp1381
g658
g544
ssssssS'Franklin Gothic Demi'
p1382
(dp1383
g653
(dp1384
g646
(dp1385
I600
(dp1386
g646
(dp1387
g658
g129
sssssg646
(dp1388
g646
(dp1389
I600
(dp1390
g646
(dp1391
g658
g156
ssssssS'Mael'
p1392
(dp1393
g646
(dp1394
g646
(dp1395
I400
(dp1396
g646
(dp1397
g658
g480
ssssssS'STIXGeneral'
p1398
(dp1399
g653
(dp1400
g646
(dp1401
I400
(dp1402
g646
(dp1403
g658
g7
sssI700
(dp1404
g646
(dp1405
g658
g24
sssssg646
(dp1406
g646
(dp1407
I400
(dp1408
g646
(dp1409
g658
g10
sssI700
(dp1410
g646
(dp1411
g658
g37
ssssssS'Arial Black'
p1412
(dp1413
g646
(dp1414
g646
(dp1415
I900
(dp1416
g646
(dp1417
g658
g445
ssssssS'Gigi'
p1418
(dp1419
g646
(dp1420
g646
(dp1421
I400
(dp1422
g646
(dp1423
g658
g389
ssssssS'Rockwell Condensed'
p1424
(dp1425
g646
(dp1426
g646
(dp1427
I400
(dp1428
g852
(dp1429
g658
g489
sssI700
(dp1430
g852
(dp1431
g658
g138
ssssssS'Nasalization'
p1432
(dp1433
g646
(dp1434
g646
(dp1435
I400
(dp1436
g646
(dp1437
g658
g47
ssssssS'Wingdings'
p1438
(dp1439
g646
(dp1440
g646
(dp1441
I400
(dp1442
g646
(dp1443
g658
g370
ssssssS'Arial Rounded MT Bold'
p1444
(dp1445
g646
(dp1446
g646
(dp1447
I700
(dp1448
g646
(dp1449
g658
g355
ssssssS'Colonna MT'
p1450
(dp1451
g646
(dp1452
g646
(dp1453
I400
(dp1454
g646
(dp1455
g658
g288
ssssssS'French Script MT'
p1456
(dp1457
g646
(dp1458
g646
(dp1459
I400
(dp1460
g646
(dp1461
g658
g478
ssssssS'Lucida Sans Unicode'
p1462
(dp1463
g646
(dp1464
g646
(dp1465
I400
(dp1466
g646
(dp1467
g658
g323
ssssssS'Hollywood Hills'
p1468
(dp1469
g646
(dp1470
g646
(dp1471
I400
(dp1472
g646
(dp1473
g658
g182
ssssssS'Poor Richard'
p1474
(dp1475
g646
(dp1476
g646
(dp1477
I400
(dp1478
g646
(dp1479
g658
g639
ssssssS'Gill Sans MT'
p1480
(dp1481
g653
(dp1482
g646
(dp1483
I400
(dp1484
g646
(dp1485
g658
g153
sssI700
(dp1486
g646
(dp1487
g658
g140
sssssg646
(dp1488
g646
(dp1489
I400
(dp1490
g646
(dp1491
g658
g227
sssI700
(dp1492
g646
(dp1493
g658
g344
ssssssS'LetterOMatic!'
p1494
(dp1495
g646
(dp1496
g646
(dp1497
I400
(dp1498
g646
(dp1499
g658
g255
ssssssS'Britannic Bold'
p1500
(dp1501
g646
(dp1502
g646
(dp1503
I700
(dp1504
g646
(dp1505
g658
g304
ssssssS'Cracked Johnnie'
p1506
(dp1507
g646
(dp1508
g646
(dp1509
I400
(dp1510
g646
(dp1511
g658
g387
ssssssS'Centaur'
p1512
(dp1513
g646
(dp1514
g646
(dp1515
I400
(dp1516
g646
(dp1517
g658
g433
ssssssS'Mingle'
p1518
(dp1519
g646
(dp1520
g646
(dp1521
I400
(dp1522
g646
(dp1523
g658
g356
ssssssS'Tarzan'
p1524
(dp1525
g646
(dp1526
g646
(dp1527
I400
(dp1528
g646
(dp1529
g658
g619
ssssssS'PenultimateLightItal'
p1530
(dp1531
g646
(dp1532
g646
(dp1533
I200
(dp1534
g646
(dp1535
g658
g292
ssssssS'Gautami'
p1536
(dp1537
g646
(dp1538
g646
(dp1539
I400
(dp1540
g646
(dp1541
g658
g327
ssssssS'Arial Unicode MS'
p1542
(dp1543
g646
(dp1544
g646
(dp1545
I400
(dp1546
g646
(dp1547
g658
g638
ssssssS'QuiverItal'
p1548
(dp1549
g646
(dp1550
g646
(dp1551
I400
(dp1552
g646
(dp1553
g658
g260
ssssssS'MS Reference Specialty'
p1554
(dp1555
g646
(dp1556
g646
(dp1557
I400
(dp1558
g646
(dp1559
g658
g470
ssssssS'Imprint MT Shadow'
p1560
(dp1561
g646
(dp1562
g646
(dp1563
I400
(dp1564
g646
(dp1565
g658
g618
ssssssS'Franklin Gothic Medium Cond'
p1566
(dp1567
g646
(dp1568
g646
(dp1569
I500
(dp1570
g852
(dp1571
g658
g380
ssssssS'Candles'
p1572
(dp1573
g646
(dp1574
g646
(dp1575
I400
(dp1576
g646
(dp1577
g658
g128
ssssssS'Calvin'
p1578
(dp1579
g646
(dp1580
g646
(dp1581
I400
(dp1582
g646
(dp1583
g658
g367
ssssssS'Papyrus'
p1584
(dp1585
g646
(dp1586
g646
(dp1587
I400
(dp1588
g646
(dp1589
g658
g395
ssssssS'Playbill'
p1590
(dp1591
g646
(dp1592
g646
(dp1593
I400
(dp1594
g646
(dp1595
g658
g603
ssssssS'Algerian'
p1596
(dp1597
g646
(dp1598
g646
(dp1599
I400
(dp1600
g646
(dp1601
g658
g488
ssssssS'Marlett'
p1602
(dp1603
g646
(dp1604
g646
(dp1605
I400
(dp1606
g646
(dp1607
g658
g322
ssssssS'Broadway'
p1608
(dp1609
g646
(dp1610
g646
(dp1611
I400
(dp1612
g646
(dp1613
g658
g643
ssssssS'Footlight MT Light'
p1614
(dp1615
g646
(dp1616
g646
(dp1617
I200
(dp1618
g646
(dp1619
g658
g620
ssssssS'Woodcut'
p1620
(dp1621
g646
(dp1622
g646
(dp1623
I400
(dp1624
g646
(dp1625
g658
g122
ssssssS'cmss10'
p1626
(dp1627
g646
(dp1628
g646
(dp1629
I400
(dp1630
g646
(dp1631
g658
g33
ssssssS'Century Gothic'
p1632
(dp1633
g653
(dp1634
g646
(dp1635
I400
(dp1636
g646
(dp1637
g658
g525
sssI700
(dp1638
g646
(dp1639
g658
g330
sssssg646
(dp1640
g646
(dp1641
I400
(dp1642
g646
(dp1643
g658
g452
sssI700
(dp1644
g646
(dp1645
g658
g499
ssssssS'Viner Hand ITC'
p1646
(dp1647
g646
(dp1648
g646
(dp1649
I400
(dp1650
g646
(dp1651
g658
g408
ssssssS'Vivian'
p1652
(dp1653
g646
(dp1654
g646
(dp1655
I400
(dp1656
g646
(dp1657
g658
g383
ssssssS'Bradley Hand ITC'
p1658
(dp1659
g646
(dp1660
g646
(dp1661
I400
(dp1662
g646
(dp1663
g658
g575
ssssssS'Copperplate Gothic Bold'
p1664
(dp1665
g646
(dp1666
g646
(dp1667
I700
(dp1668
g646
(dp1669
g658
g640
ssssssS'Calisto MT'
p1670
(dp1671
g653
(dp1672
g646
(dp1673
I400
(dp1674
g646
(dp1675
g658
g263
sssI700
(dp1676
g646
(dp1677
g658
g632
sssssg646
(dp1678
g646
(dp1679
I400
(dp1680
g646
(dp1681
g658
g409
sssI700
(dp1682
g646
(dp1683
g658
g342
ssssssS'SF Movie Poster'
p1684
(dp1685
g646
(dp1686
g646
(dp1687
I400
(dp1688
g646
(dp1689
g658
g176
ssssssS'Chinyen'
p1690
(dp1691
g646
(dp1692
g646
(dp1693
I400
(dp1694
g646
(dp1695
g658
g82
ssssssS'Bitstream Vera Serif'
p1696
(dp1697
g646
(dp1698
g646
(dp1699
I400
(dp1700
g646
(dp1701
g658
g17
sssI700
(dp1702
g646
(dp1703
g658
g14
ssssssS'X-Files'
p1704
(dp1705
g646
(dp1706
g646
(dp1707
I400
(dp1708
g646
(dp1709
g658
g161
ssssssS'cmmi10'
p1710
(dp1711
g646
(dp1712
g646
(dp1713
I400
(dp1714
g646
(dp1715
g658
g13
ssssssS'Parchment'
p1716
(dp1717
g646
(dp1718
g646
(dp1719
I400
(dp1720
g646
(dp1721
g658
g515
ssssssS'Lucida Sans Typewriter'
p1722
(dp1723
S'oblique'
p1724
(dp1725
g646
(dp1726
I400
(dp1727
g646
(dp1728
g658
g314
sssI700
(dp1729
g646
(dp1730
g658
g601
sssssg646
(dp1731
g646
(dp1732
I400
(dp1733
g646
(dp1734
g658
g446
sssI700
(dp1735
g646
(dp1736
g658
g604
ssssssS'Matura MT Script Capitals'
p1737
(dp1738
g646
(dp1739
g646
(dp1740
I400
(dp1741
g646
(dp1742
g658
g548
ssssssS'Parry Hotter'
p1743
(dp1744
g646
(dp1745
g646
(dp1746
I400
(dp1747
g646
(dp1748
g658
g104
ssssssS'18thCentury'
p1749
(dp1750
g646
(dp1751
g646
(dp1752
I400
(dp1753
g646
(dp1754
g658
g564
ssssssS'Trebuchet MS'
p1755
(dp1756
g653
(dp1757
g646
(dp1758
I400
(dp1759
g646
(dp1760
g658
g273
sssI700
(dp1761
g646
(dp1762
g658
g204
sssssg646
(dp1763
g646
(dp1764
I400
(dp1765
g646
(dp1766
g658
g226
sssI700
(dp1767
g646
(dp1768
g658
g426
ssssssS'Engravers MT'
p1769
(dp1770
g646
(dp1771
g646
(dp1772
I400
(dp1773
g646
(dp1774
g658
g434
ssssssS'Bitstream Vera Sans'
p1775
(dp1776
g1724
(dp1777
g646
(dp1778
I400
(dp1779
g646
(dp1780
g658
g8
sssI700
(dp1781
g646
(dp1782
g658
g15
sssssg646
(dp1783
g646
(dp1784
I400
(dp1785
g646
(dp1786
g658
g9
sssI700
(dp1787
g646
(dp1788
g658
g32
ssssssS'Lucida Handwriting'
p1789
(dp1790
g653
(dp1791
g646
(dp1792
I400
(dp1793
g646
(dp1794
g658
g596
ssssssS'Andorra'
p1795
(dp1796
g646
(dp1797
g646
(dp1798
I400
(dp1799
g646
(dp1800
g658
g107
ssssssS'Goudy Stout'
p1801
(dp1802
g646
(dp1803
g646
(dp1804
I400
(dp1805
g646
(dp1806
g658
g503
ssssssS'cmr10'
p1807
(dp1808
g646
(dp1809
g646
(dp1810
I400
(dp1811
g646
(dp1812
g658
g25
ssssssS'MT Extra'
p1813
(dp1814
g646
(dp1815
g646
(dp1816
I400
(dp1817
g646
(dp1818
g658
g373
ssssssS'Pristina'
p1819
(dp1820
g646
(dp1821
g646
(dp1822
I400
(dp1823
g646
(dp1824
g658
g455
ssssssS'Gill Sans Ultra Bold'
p1825
(dp1826
g646
(dp1827
g646
(dp1828
I700
(dp1829
g646
(dp1830
g658
g432
ssssssS'Garamond'
p1831
(dp1832
g653
(dp1833
g646
(dp1834
I400
(dp1835
g646
(dp1836
g658
g602
sssssg646
(dp1837
g646
(dp1838
I400
(dp1839
g646
(dp1840
g658
g605
sssI700
(dp1841
g646
(dp1842
g658
g551
ssssssS'Book Antiqua'
p1843
(dp1844
g653
(dp1845
g646
(dp1846
I400
(dp1847
g646
(dp1848
g658
g475
sssI700
(dp1849
g646
(dp1850
g658
g320
sssssg646
(dp1851
g646
(dp1852
I400
(dp1853
g646
(dp1854
g658
g264
sssI700
(dp1855
g646
(dp1856
g658
g306
ssssssS'Vrinda'
p1857
(dp1858
g646
(dp1859
g646
(dp1860
I400
(dp1861
g646
(dp1862
g658
g556
ssssssS'Dayton'
p1863
(dp1864
g646
(dp1865
g646
(dp1866
I400
(dp1867
g646
(dp1868
g658
g71
ssssssS'LittleLordFontleroy'
p1869
(dp1870
g646
(dp1871
g646
(dp1872
I400
(dp1873
g646
(dp1874
g658
g106
ssssssS'Symbol'
p1875
(dp1876
g646
(dp1877
g646
(dp1878
I400
(dp1879
g646
(dp1880
g658
g464
ssssssS'High Tower Text'
p1881
(dp1882
g653
(dp1883
g646
(dp1884
I400
(dp1885
g646
(dp1886
g658
g566
sssssg646
(dp1887
g646
(dp1888
I400
(dp1889
g646
(dp1890
g658
g574
ssssssS'Rondalo'
p1891
(dp1892
g646
(dp1893
g646
(dp1894
I400
(dp1895
g646
(dp1896
g658
g403
ssssssS'Flubber'
p1897
(dp1898
g646
(dp1899
g646
(dp1900
I400
(dp1901
g646
(dp1902
g658
g587
ssssssS'Niagara Solid'
p1903
(dp1904
g646
(dp1905
g646
(dp1906
I400
(dp1907
g646
(dp1908
g658
g562
ssssssS'Wide Latin'
p1909
(dp1910
g646
(dp1911
g646
(dp1912
I400
(dp1913
S'expanded'
p1914
(dp1915
g658
g616
ssssssS'Gill Sans MT Condensed'
p1916
(dp1917
g646
(dp1918
g646
(dp1919
I400
(dp1920
g852
(dp1921
g658
g484
ssssssS'Microsoft Sans Serif'
p1922
(dp1923
g646
(dp1924
g646
(dp1925
I400
(dp1926
g646
(dp1927
g658
g411
ssssssS'Abbess'
p1928
(dp1929
g646
(dp1930
g646
(dp1931
I400
(dp1932
g646
(dp1933
g658
g147
ssssssS'Informal Roman'
p1934
(dp1935
g646
(dp1936
g646
(dp1937
I500
(dp1938
g646
(dp1939
g658
g502
ssssssS'November'
p1940
(dp1941
g646
(dp1942
g646
(dp1943
I400
(dp1944
g646
(dp1945
g658
g328
ssssssS'Kartika'
p1946
(dp1947
g646
(dp1948
g646
(dp1949
I400
(dp1950
g646
(dp1951
g658
g430
ssssssS'Maiandra GD'
p1952
(dp1953
g646
(dp1954
g646
(dp1955
I400
(dp1956
g646
(dp1957
g658
g505
ssssssS'Tw Cen MT Condensed'
p1958
(dp1959
g646
(dp1960
g646
(dp1961
I400
(dp1962
g852
(dp1963
g658
g495
sssI700
(dp1964
g852
(dp1965
g658
g493
ssssssS'Edwardian Script ITC'
p1966
(dp1967
g646
(dp1968
g646
(dp1969
I400
(dp1970
g646
(dp1971
g658
g579
ssssssS'Georgia'
p1972
(dp1973
g653
(dp1974
g646
(dp1975
I400
(dp1976
g646
(dp1977
g658
g641
sssI700
(dp1978
g646
(dp1979
g658
g133
sssssg646
(dp1980
g646
(dp1981
I400
(dp1982
g646
(dp1983
g658
g476
sssI700
(dp1984
g646
(dp1985
g658
g554
ssssssS'Heavy Heap'
p1986
(dp1987
g646
(dp1988
g646
(dp1989
I800
(dp1990
g646
(dp1991
g658
g302
ssssssS'Creepygirl'
p1992
(dp1993
g646
(dp1994
g646
(dp1995
I400
(dp1996
g646
(dp1997
g658
g300
ssssssS'Raavi'
p1998
(dp1999
g646
(dp2000
g646
(dp2001
I400
(dp2002
g646
(dp2003
g658
g582
ssssssS'Mistral'
p2004
(dp2005
g646
(dp2006
g646
(dp2007
I400
(dp2008
g646
(dp2009
g658
g627
ssssssS'OCR A Extended'
p2010
(dp2011
g646
(dp2012
g646
(dp2013
I400
(dp2014
g646
(dp2015
g658
g527
ssssssS'Bodoni MT Poster Compressed'
p2016
(dp2017
g646
(dp2018
g646
(dp2019
I400
(dp2020
g646
(dp2021
g658
g612
ssssssS'Sylfaen'
p2022
(dp2023
g646
(dp2024
g646
(dp2025
I400
(dp2026
g646
(dp2027
g658
g593
ssssssS'Webdings'
p2028
(dp2029
g646
(dp2030
g646
(dp2031
I400
(dp2032
g646
(dp2033
g658
g635
ssssssS'Tempus Sans ITC'
p2034
(dp2035
g646
(dp2036
g646
(dp2037
I400
(dp2038
g646
(dp2039
g658
g528
ssssssS'Eras Demi ITC'
p2040
(dp2041
g646
(dp2042
g646
(dp2043
I600
(dp2044
g646
(dp2045
g658
g625
ssssssS'PR Celtic Narrow'
p2046
(dp2047
g646
(dp2048
g646
(dp2049
I400
(dp2050
g852
(dp2051
g658
g149
ssssssS'Palent'
p2052
(dp2053
g646
(dp2054
g646
(dp2055
I400
(dp2056
g646
(dp2057
g658
g628
ssssssS'Showcard Gothic'
p2058
(dp2059
g646
(dp2060
g646
(dp2061
I400
(dp2062
g646
(dp2063
g658
g584
ssssssS'Jokerman'
p2064
(dp2065
g646
(dp2066
g646
(dp2067
I400
(dp2068
g646
(dp2069
g658
g374
ssssssS'Fingerpop'
p2070
(dp2071
g646
(dp2072
g646
(dp2073
I400
(dp2074
g646
(dp2075
g658
g438
ssssssS'Forte'
p2076
(dp2077
g646
(dp2078
g646
(dp2079
I400
(dp2080
g646
(dp2081
g658
g535
ssssssS'Niagara Engraved'
p2082
(dp2083
g646
(dp2084
g646
(dp2085
I400
(dp2086
g646
(dp2087
g658
g558
ssssssS'Magneto'
p2088
(dp2089
g646
(dp2090
g646
(dp2091
I700
(dp2092
g646
(dp2093
g658
g366
ssssssS'Greek Diner Inline TT'
p2094
(dp2095
g646
(dp2096
g646
(dp2097
I400
(dp2098
g646
(dp2099
g658
g622
ssssssS'Hand Me Down S (BRK)'
p2100
(dp2101
g646
(dp2102
g646
(dp2103
I400
(dp2104
g646
(dp2105
g658
g74
ssssssS'Latha'
p2106
(dp2107
g646
(dp2108
g646
(dp2109
I400
(dp2110
g646
(dp2111
g658
g166
ssssssS'Franklin Gothic Medium'
p2112
(dp2113
g653
(dp2114
g646
(dp2115
I500
(dp2116
g646
(dp2117
g658
g471
sssssg646
(dp2118
g646
(dp2119
I500
(dp2120
g646
(dp2121
g658
g506
ssssssS'Tw Cen MT'
p2122
(dp2123
g653
(dp2124
g646
(dp2125
I400
(dp2126
g646
(dp2127
g658
g462
sssI700
(dp2128
g646
(dp2129
g658
g381
sssssg646
(dp2130
g646
(dp2131
I400
(dp2132
g646
(dp2133
g658
g375
sssI700
(dp2134
g646
(dp2135
g658
g422
ssssssS'Blackadder ITC'
p2136
(dp2137
g646
(dp2138
g646
(dp2139
I900
(dp2140
g646
(dp2141
g658
g275
ssssssS'Berlin Sans FB Demi'
p2142
(dp2143
g646
(dp2144
g646
(dp2145
I700
(dp2146
g646
(dp2147
g658
g508
ssssssS'Tahoma'
p2148
(dp2149
g646
(dp2150
g646
(dp2151
I400
(dp2152
g646
(dp2153
g658
g498
sssI700
(dp2154
g646
(dp2155
g658
g247
ssssssS'Distant Galaxy'
p2156
(dp2157
g646
(dp2158
g646
(dp2159
I400
(dp2160
g646
(dp2161
g658
g135
ssssssS'Whimsy TT'
p2162
(dp2163
g646
(dp2164
g646
(dp2165
I400
(dp2166
g646
(dp2167
g658
g491
ssssssS'Bobcat'
p2168
(dp2169
g646
(dp2170
g646
(dp2171
I400
(dp2172
g646
(dp2173
g658
g332
ssssssS'Niamey'
p2174
(dp2175
g646
(dp2176
g646
(dp2177
I400
(dp2178
g646
(dp2179
g658
g526
ssssssS'Tw Cen MT Condensed Extra Bold'
p2180
(dp2181
g646
(dp2182
g646
(dp2183
I700
(dp2184
g852
(dp2185
g658
g540
ssssssS'Palatino Linotype'
p2186
(dp2187
g653
(dp2188
g646
(dp2189
I400
(dp2190
g646
(dp2191
g658
g228
sssI700
(dp2192
g646
(dp2193
g658
g623
sssssg646
(dp2194
g646
(dp2195
I400
(dp2196
g646
(dp2197
g658
g536
sssI700
(dp2198
g646
(dp2199
g658
g384
ssssssS'BN Machine'
p2200
(dp2201
g646
(dp2202
g646
(dp2203
I400
(dp2204
g646
(dp2205
g658
g326
ssssssS'Brussels'
p2206
(dp2207
g646
(dp2208
g646
(dp2209
I400
(dp2210
g646
(dp2211
g658
g404
ssssssS'Ballet'
p2212
(dp2213
g646
(dp2214
g646
(dp2215
I400
(dp2216
g646
(dp2217
g658
g626
ssssssS'cmb10'
p2218
(dp2219
g646
(dp2220
g646
(dp2221
I400
(dp2222
g646
(dp2223
g658
g19
ssssssS'Lucida Calligraphy'
p2224
(dp2225
g653
(dp2226
g646
(dp2227
I400
(dp2228
g646
(dp2229
g658
g390
ssssssS'Castellar'
p2230
(dp2231
g646
(dp2232
g646
(dp2233
I400
(dp2234
g646
(dp2235
g658
g173
ssssssS'Script MT Bold'
p2236
(dp2237
g646
(dp2238
g646
(dp2239
I700
(dp2240
g646
(dp2241
g658
g630
ssssssS'Ethnocentric'
p2242
(dp2243
g646
(dp2244
g646
(dp2245
I400
(dp2246
g646
(dp2247
g658
g467
ssssssS'Freestyle Script'
p2248
(dp2249
g646
(dp2250
g646
(dp2251
I400
(dp2252
g646
(dp2253
g658
g386
ssssssS'Snowdrift'
p2254
(dp2255
g646
(dp2256
g646
(dp2257
I400
(dp2258
g646
(dp2259
g658
g52
ssssssS'Gloucester MT Extra Condensed'
p2260
(dp2261
g646
(dp2262
g646
(dp2263
I400
(dp2264
g852
(dp2265
g658
g318
ssssssS'Lucida Console'
p2266
(dp2267
g646
(dp2268
g646
(dp2269
I400
(dp2270
g646
(dp2271
g658
g352
ssssssS'Bernard MT Condensed'
p2272
(dp2273
g646
(dp2274
g646
(dp2275
I400
(dp2276
g852
(dp2277
g658
g552
ssssssS'Curlz MT'
p2278
(dp2279
g646
(dp2280
g646
(dp2281
I400
(dp2282
g646
(dp2283
g658
g271
ssssssS'Felix Titling'
p2284
(dp2285
g646
(dp2286
g646
(dp2287
I400
(dp2288
g646
(dp2289
g658
g337
ssssssS'Baskerville Old Face'
p2290
(dp2291
g646
(dp2292
g646
(dp2293
I400
(dp2294
g646
(dp2295
g658
g392
ssssssS'Vladimir Script'
p2296
(dp2297
g646
(dp2298
g646
(dp2299
I400
(dp2300
g646
(dp2301
g658
g580
ssssssS'Autumn'
p2302
(dp2303
g646
(dp2304
g646
(dp2305
I400
(dp2306
g646
(dp2307
g658
g371
ssssssS'Unpact'
p2308
(dp2309
g646
(dp2310
g646
(dp2311
I400
(dp2312
g646
(dp2313
g658
g588
ssssssS'Harlow Solid Italic'
p2314
(dp2315
g653
(dp2316
g646
(dp2317
I400
(dp2318
g646
(dp2319
g658
g516
ssssssS'Rockwell'
p2320
(dp2321
g653
(dp2322
g646
(dp2323
I400
(dp2324
g646
(dp2325
g658
g267
sssI700
(dp2326
g646
(dp2327
g658
g572
sssssg646
(dp2328
g646
(dp2329
I400
(dp2330
g646
(dp2331
g658
g419
sssI700
(dp2332
g646
(dp2333
g658
g229
ssssssS'Induction'
p2334
(dp2335
g646
(dp2336
g646
(dp2337
I400
(dp2338
g646
(dp2339
g658
g220
ssssssS'Monotype Corsiva'
p2340
(dp2341
g646
(dp2342
g646
(dp2343
I400
(dp2344
g646
(dp2345
g658
g134
ssssssS'Onyx'
p2346
(dp2347
g646
(dp2348
g646
(dp2349
I400
(dp2350
g646
(dp2351
g658
g474
ssssssS'Kristen ITC'
p2352
(dp2353
g646
(dp2354
g646
(dp2355
I400
(dp2356
g646
(dp2357
g658
g569
ssssssS'Lissen'
p2358
(dp2359
g646
(dp2360
g646
(dp2361
I400
(dp2362
g646
(dp2363
g658
g443
ssssssS'Bodoni MT'
p2364
(dp2365
g653
(dp2366
g646
(dp2367
I400
(dp2368
g646
(dp2369
g658
g335
sssI700
(dp2370
g646
(dp2371
g658
g125
sssssg646
(dp2372
g646
(dp2373
I400
(dp2374
g646
(dp2375
g658
g608
sssI700
(dp2376
g646
(dp2377
g658
g391
ssssssS'Cooper Black'
p2378
(dp2379
g646
(dp2380
g646
(dp2381
I900
(dp2382
g646
(dp2383
g658
g336
ssssssS'Times New Roman'
p2384
(dp2385
g653
(dp2386
g646
(dp2387
I700
(dp2388
g646
(dp2389
g658
g429
sssI500
(dp2390
g646
(dp2391
g658
g428
sssssg646
(dp2392
g646
(dp2393
I700
(dp2394
g646
(dp2395
g658
g486
sssI500
(dp2396
g646
(dp2397
g658
g235
ssssssS'Eras Medium ITC'
p2398
(dp2399
g646
(dp2400
g646
(dp2401
I500
(dp2402
g646
(dp2403
g658
g555
ssssssS'Balthazar'
p2404
(dp2405
g646
(dp2406
g646
(dp2407
I400
(dp2408
g646
(dp2409
g658
g534
ssssssS'Californian FB'
p2410
(dp2411
g653
(dp2412
g646
(dp2413
I400
(dp2414
g646
(dp2415
g658
g607
sssssg646
(dp2416
g646
(dp2417
I400
(dp2418
g646
(dp2419
g658
g333
sssI700
(dp2420
g646
(dp2421
g658
g531
ssssssS'Brush Script MT'
p2422
(dp2423
g653
(dp2424
g646
(dp2425
I400
(dp2426
g646
(dp2427
g658
g385
ssssssS'Goudy Old Style'
p2428
(dp2429
g653
(dp2430
g646
(dp2431
I400
(dp2432
g646
(dp2433
g658
g473
sssssg646
(dp2434
g646
(dp2435
I400
(dp2436
g646
(dp2437
g658
g591
sssI700
(dp2438
g646
(dp2439
g658
g369
ssssssS'Comic Sans MS'
p2440
(dp2441
g646
(dp2442
g646
(dp2443
I400
(dp2444
g646
(dp2445
g658
g530
sssI700
(dp2446
g646
(dp2447
g658
g301
ssssssS'Gill Sans Ultra Bold Condensed'
p2448
(dp2449
g646
(dp2450
g646
(dp2451
I700
(dp2452
g852
(dp2453
g658
g500
ssssssS'Bauhaus 93'
p2454
(dp2455
g646
(dp2456
g646
(dp2457
I400
(dp2458
g646
(dp2459
g658
g412
ssssssS'Tunga'
p2460
(dp2461
g646
(dp2462
g646
(dp2463
I400
(dp2464
g646
(dp2465
g658
g585
ssssssS'Bitstream Vera Sans Mono'
p2466
(dp2467
g1724
(dp2468
g646
(dp2469
I400
(dp2470
g646
(dp2471
g658
g30
sssI700
(dp2472
g646
(dp2473
g658
g20
sssssg646
(dp2474
g646
(dp2475
I400
(dp2476
g646
(dp2477
g658
g34
sssI700
(dp2478
g646
(dp2479
g658
g12
ssssssS'Commons'
p2480
(dp2481
g646
(dp2482
g646
(dp2483
I400
(dp2484
g646
(dp2485
g658
g207
ssssssS'Chiller'
p2486
(dp2487
g646
(dp2488
g646
(dp2489
I400
(dp2490
g646
(dp2491
g658
g222
ssssssS'Emmett'
p2492
(dp2493
g646
(dp2494
g646
(dp2495
I400
(dp2496
g646
(dp2497
g658
g578
ssssssS'Corporate'
p2498
(dp2499
g646
(dp2500
g646
(dp2501
I400
(dp2502
g646
(dp2503
g658
g108
ssssssS'cmex10'
p2504
(dp2505
g646
(dp2506
g646
(dp2507
I400
(dp2508
g646
(dp2509
g658
g16
ssssssS'Manorly'
p2510
(dp2511
g646
(dp2512
g646
(dp2513
I400
(dp2514
g646
(dp2515
g658
g435
ssssssS'Mangal'
p2516
(dp2517
g646
(dp2518
g646
(dp2519
I400
(dp2520
g646
(dp2521
g658
g399
ssssssS'Juice ITC'
p2522
(dp2523
g646
(dp2524
g646
(dp2525
I400
(dp2526
g646
(dp2527
g658
g377
ssssssS'Berlin Sans FB'
p2528
(dp2529
g646
(dp2530
g646
(dp2531
I400
(dp2532
g646
(dp2533
g658
g368
sssI700
(dp2534
g646
(dp2535
g658
g568
ssssssS'Lucida Fax'
p2536
(dp2537
g653
(dp2538
g646
(dp2539
I400
(dp2540
g646
(dp2541
g658
g460
sssI700
(dp2542
g646
(dp2543
g658
g472
sssssg646
(dp2544
g646
(dp2545
I400
(dp2546
g646
(dp2547
g658
g358
sssI700
(dp2548
g646
(dp2549
g658
g609
ssssssS'Alien Encounters'
p2550
(dp2551
g646
(dp2552
g646
(dp2553
I400
(dp2554
g646
(dp2555
g658
g230
ssssssS'KlingBold'
p2556
(dp2557
g646
(dp2558
g646
(dp2559
I700
(dp2560
g646
(dp2561
g658
g102
ssssssS'Century Schoolbook'
p2562
(dp2563
g653
(dp2564
g646
(dp2565
I400
(dp2566
g646
(dp2567
g658
g343
sssI700
(dp2568
g646
(dp2569
g658
g401
sssssg646
(dp2570
g646
(dp2571
I400
(dp2572
g646
(dp2573
g658
g518
sssI700
(dp2574
g646
(dp2575
g658
g286
ssssssS'Digifit'
p2576
(dp2577
g646
(dp2578
g646
(dp2579
I400
(dp2580
g646
(dp2581
g658
g382
ssssssS'Splash'
p2582
(dp2583
g646
(dp2584
g646
(dp2585
I400
(dp2586
g646
(dp2587
g658
g416
ssssssS'Baby Kruffy'
p2588
(dp2589
g646
(dp2590
g646
(dp2591
I400
(dp2592
g646
(dp2593
g658
g321
ssssssS'Year supply of fairy cakes'
p2594
(dp2595
g646
(dp2596
g646
(dp2597
I400
(dp2598
g646
(dp2599
g658
g262
sssssssb.